---
triple:          'arm64-apple-darwin'
binary-path:     LinuxGetSsl
relocations:
  - { offsetInCU: 0x52, offset: 0x52, size: 0x8, addend: 0x0, symName: __ZL14TagsRecognized, symObjAddr: 0x32BB8, symBinAddr: 0x100014000, symSize: 0x0 }
  - { offsetInCU: 0x54D0, offset: 0x54D0, size: 0x8, addend: 0x0, symName: __ZNSt3__124__put_character_sequenceB7v160006IcNS_11char_traitsIcEEEERNS_13basic_ostreamIT_T0_EES7_PKS4_m, symObjAddr: 0x3DE0, symBinAddr: 0x100006BDC, symSize: 0x1EC }
  - { offsetInCU: 0x701A, offset: 0x701A, size: 0x8, addend: 0x0, symName: __ZNSt3__1plB7v160006IcNS_11char_traitsIcEENS_9allocatorIcEEEENS_12basic_stringIT_T0_T1_EEOS9_PKS6_, symObjAddr: 0x780, symBinAddr: 0x10000357C, symSize: 0x40 }
  - { offsetInCU: 0x7072, offset: 0x7072, size: 0x8, addend: 0x0, symName: __ZNSt3__1plB7v160006IcNS_11char_traitsIcEENS_9allocatorIcEEEENS_12basic_stringIT_T0_T1_EEOS9_SA_, symObjAddr: 0x7C0, symBinAddr: 0x1000035BC, symSize: 0x40 }
  - { offsetInCU: 0x70CA, offset: 0x70CA, size: 0x8, addend: 0x0, symName: __ZNSt3__1lsB7v160006INS_11char_traitsIcEEEERNS_13basic_ostreamIcT_EES6_PKc, symObjAddr: 0x824, symBinAddr: 0x100003620, symSize: 0x48 }
  - { offsetInCU: 0x7110, offset: 0x7110, size: 0x8, addend: 0x0, symName: __ZNSt3__14endlB7v160006IcNS_11char_traitsIcEEEERNS_13basic_ostreamIT_T0_EES7_, symObjAddr: 0x898, symBinAddr: 0x100003694, symSize: 0x58 }
  - { offsetInCU: 0x7150, offset: 0x7150, size: 0x8, addend: 0x0, symName: __ZNSt3__1lsB7v160006INS_11char_traitsIcEEEERNS_13basic_ostreamIcT_EES6_c, symObjAddr: 0x914, symBinAddr: 0x100003710, symSize: 0x34 }
  - { offsetInCU: 0x7196, offset: 0x7196, size: 0x8, addend: 0x0, symName: __ZNSt3__1neB7v160006IP4LinkEEbRKNS_11__wrap_iterIT_EES7_, symObjAddr: 0xEEC, symBinAddr: 0x100003CE8, symSize: 0x34 }
  - { offsetInCU: 0x71D9, offset: 0x71D9, size: 0x8, addend: 0x0, symName: __ZNSt3__1lsB7v160006IcNS_11char_traitsIcEENS_9allocatorIcEEEERNS_13basic_ostreamIT_T0_EES9_RKNS_12basic_stringIS6_S7_T1_EE, symObjAddr: 0xF6C, symBinAddr: 0x100003D68, symSize: 0x4C }
  - { offsetInCU: 0x7231, offset: 0x7231, size: 0x8, addend: 0x0, symName: __ZNSt3__119__debug_db_insert_cB7v160006INS_12basic_stringIcNS_11char_traitsIcEENS_9allocatorIcEEEEEEvPT_, symObjAddr: 0x1568, symBinAddr: 0x100004364, symSize: 0x10 }
  - { offsetInCU: 0x7262, offset: 0x7262, size: 0x8, addend: 0x0, symName: __ZNSt3__112__to_addressB7v160006IKcEEPT_S3_, symObjAddr: 0x1700, symBinAddr: 0x1000044FC, symSize: 0x14 }
  - { offsetInCU: 0x72CA, offset: 0x72CA, size: 0x8, addend: 0x0, symName: __ZNSt3__119__str_find_first_ofB7v160006IcmNS_11char_traitsIcEELm18446744073709551615EEET0_PKT_S3_S6_S3_S3_, symObjAddr: 0x183C, symBinAddr: 0x100004638, symSize: 0xF0 }
  - { offsetInCU: 0x7371, offset: 0x7371, size: 0x8, addend: 0x0, symName: __ZNSt3__118__find_first_of_ceB7v160006IPKcS2_RFbccEEET_S5_S5_T0_S6_OT1_, symObjAddr: 0x19B4, symBinAddr: 0x1000047B0, symSize: 0xD0 }
  - { offsetInCU: 0x740C, offset: 0x740C, size: 0x8, addend: 0x0, symName: __ZNSt3__118__constexpr_strlenB7v160006EPKc, symObjAddr: 0x1B08, symBinAddr: 0x100004904, symSize: 0x24 }
  - { offsetInCU: 0x7438, offset: 0x7438, size: 0x8, addend: 0x0, symName: __ZNSt3__1eqB7v160006IP4LinkEEbRKNS_11__wrap_iterIT_EES7_, symObjAddr: 0x1CA0, symBinAddr: 0x100004A9C, symSize: 0x48 }
  - { offsetInCU: 0x747B, offset: 0x747B, size: 0x8, addend: 0x0, symName: __ZNSt3__122__make_exception_guardB7v160006INS_6vectorINS_12basic_stringIcNS_11char_traitsIcEENS_9allocatorIcEEEENS5_IS7_EEE16__destroy_vectorEEENS_28__exception_guard_exceptionsIT_EESC_, symObjAddr: 0x1F2C, symBinAddr: 0x100004D28, symSize: 0x40 }
  - { offsetInCU: 0x74B0, offset: 0x74B0, size: 0x8, addend: 0x0, symName: __ZNSt3__119__debug_db_insert_cB7v160006INS_6vectorINS_12basic_stringIcNS_11char_traitsIcEENS_9allocatorIcEEEENS5_IS7_EEEEEEvPT_, symObjAddr: 0x1FA0, symBinAddr: 0x100004D9C, symSize: 0x10 }
  - { offsetInCU: 0x74E1, offset: 0x74E1, size: 0x8, addend: 0x0, symName: __ZNSt3__119__allocate_at_leastB7v160006INS_9allocatorINS_12basic_stringIcNS_11char_traitsIcEENS1_IcEEEEEEEENS_19__allocation_resultINS_16allocator_traitsIT_E7pointerEEERSA_m, symObjAddr: 0x2304, symBinAddr: 0x100005100, symSize: 0x40 }
  - { offsetInCU: 0x7524, offset: 0x7524, size: 0x8, addend: 0x0, symName: __ZNSt3__13minB7v160006ImEERKT_S3_S3_, symObjAddr: 0x245C, symBinAddr: 0x100005258, symSize: 0x2C }
  - { offsetInCU: 0x7768, offset: 0x7768, size: 0x8, addend: 0x0, symName: __ZNSt3__13minB7v160006ImNS_6__lessImmEEEERKT_S5_S5_T0_, symObjAddr: 0x24C0, symBinAddr: 0x1000052BC, symSize: 0x54 }
  - { offsetInCU: 0x77FD, offset: 0x77FD, size: 0x8, addend: 0x0, symName: __ZNSt3__120__throw_length_errorB7v160006EPKc, symObjAddr: 0x2568, symBinAddr: 0x100005364, symSize: 0x64 }
  - { offsetInCU: 0x7825, offset: 0x7825, size: 0x8, addend: 0x0, symName: __ZNSt3__117__libcpp_allocateB7v160006Emm, symObjAddr: 0x26DC, symBinAddr: 0x1000054D8, symSize: 0x28 }
  - { offsetInCU: 0x7862, offset: 0x7862, size: 0x8, addend: 0x0, symName: __ZNSt3__121__libcpp_operator_newB7v160006IJmEEEPvDpT_, symObjAddr: 0x2704, symBinAddr: 0x100005500, symSize: 0x24 }
  - { offsetInCU: 0x789B, offset: 0x789B, size: 0x8, addend: 0x0, symName: __ZNSt3__112__to_addressB7v160006INS_12basic_stringIcNS_11char_traitsIcEENS_9allocatorIcEEEEEEPT_S8_, symObjAddr: 0x2820, symBinAddr: 0x10000561C, symSize: 0x14 }
  - { offsetInCU: 0x78D0, offset: 0x78D0, size: 0x8, addend: 0x0, symName: __ZNSt3__130__uninitialized_allocator_copyB7v160006INS_9allocatorINS_12basic_stringIcNS_11char_traitsIcEENS1_IcEEEEEEPS6_S8_S8_EET2_RT_T0_T1_S9_, symObjAddr: 0x28D0, symBinAddr: 0x1000056CC, symSize: 0xF4 }
  - { offsetInCU: 0x796E, offset: 0x796E, size: 0x8, addend: 0x0, symName: __ZNSt3__122__make_exception_guardB7v160006INS_29_AllocatorDestroyRangeReverseINS_9allocatorINS_12basic_stringIcNS_11char_traitsIcEENS2_IcEEEEEEPS7_EEEENS_28__exception_guard_exceptionsIT_EESC_, symObjAddr: 0x2A3C, symBinAddr: 0x100005838, symSize: 0x4C }
  - { offsetInCU: 0x79A4, offset: 0x79A4, size: 0x8, addend: 0x0, symName: __ZNSt3__119__allocator_destroyB7v160006INS_9allocatorINS_12basic_stringIcNS_11char_traitsIcEENS1_IcEEEEEENS_16reverse_iteratorIPS6_EESA_EEvRT_T0_T1_, symObjAddr: 0x2CCC, symBinAddr: 0x100005AC8, symSize: 0x70 }
  - { offsetInCU: 0x7A07, offset: 0x7A07, size: 0x8, addend: 0x0, symName: __ZNSt3__1neB7v160006IPNS_12basic_stringIcNS_11char_traitsIcEENS_9allocatorIcEEEES7_EEbRKNS_16reverse_iteratorIT_EERKNS8_IT0_EE, symObjAddr: 0x2D70, symBinAddr: 0x100005B6C, symSize: 0x48 }
  - { offsetInCU: 0x7A53, offset: 0x7A53, size: 0x8, addend: 0x0, symName: __ZNSt3__112__to_addressB7v160006INS_16reverse_iteratorIPNS_12basic_stringIcNS_11char_traitsIcEENS_9allocatorIcEEEEEEvEENS_5decayIDTclsr19__to_address_helperIT_EE6__callclsr3stdE7declvalIRKSB_EEEEE4typeESD_, symObjAddr: 0x2DE4, symBinAddr: 0x100005BE0, symSize: 0x24 }
  - { offsetInCU: 0x7AB2, offset: 0x7AB2, size: 0x8, addend: 0x0, symName: __ZNSt3__118__debug_db_erase_cB7v160006INS_6vectorINS_12basic_stringIcNS_11char_traitsIcEENS_9allocatorIcEEEENS5_IS7_EEEEEEvPT_, symObjAddr: 0x30F4, symBinAddr: 0x100005EF0, symSize: 0x10 }
  - { offsetInCU: 0x7AE3, offset: 0x7AE3, size: 0x8, addend: 0x0, symName: __ZNSt3__119__libcpp_deallocateB7v160006EPvmm, symObjAddr: 0x3230, symBinAddr: 0x10000602C, symSize: 0x30 }
  - { offsetInCU: 0x7B2B, offset: 0x7B2B, size: 0x8, addend: 0x0, symName: __ZNSt3__127__do_deallocate_handle_sizeB7v160006IJEEEvPvmDpT_, symObjAddr: 0x3260, symBinAddr: 0x10000605C, symSize: 0x28 }
  - { offsetInCU: 0x7B69, offset: 0x7B69, size: 0x8, addend: 0x0, symName: __ZNSt3__124__libcpp_operator_deleteB7v160006IJPvEEEvDpT_, symObjAddr: 0x3288, symBinAddr: 0x100006084, symSize: 0x24 }
  - { offsetInCU: 0x7B9E, offset: 0x7B9E, size: 0x8, addend: 0x0, symName: __ZNSt3__118__debug_db_erase_cB7v160006INS_6vectorI4LinkNS_9allocatorIS2_EEEEEEvPT_, symObjAddr: 0x35D8, symBinAddr: 0x1000063D4, symSize: 0x10 }
  - { offsetInCU: 0x7BCF, offset: 0x7BCF, size: 0x8, addend: 0x0, symName: __ZNSt3__112__to_addressB7v160006I4LinkEEPT_S3_, symObjAddr: 0x371C, symBinAddr: 0x100006518, symSize: 0x14 }
  - { offsetInCU: 0x7C37, offset: 0x7C37, size: 0x8, addend: 0x0, symName: __ZNSt3__115__debug_db_swapB7v160006INS_12basic_stringIcNS_11char_traitsIcEENS_9allocatorIcEEEEEEvPT_S8_, symObjAddr: 0x3D80, symBinAddr: 0x100006B7C, symSize: 0x14 }
  - { offsetInCU: 0x7C76, offset: 0x7C76, size: 0x8, addend: 0x0, symName: __ZNSt3__116__pad_and_outputB7v160006IcNS_11char_traitsIcEEEENS_19ostreambuf_iteratorIT_T0_EES6_PKS4_S8_S8_RNS_8ios_baseES4_, symObjAddr: 0x3FE8, symBinAddr: 0x100006DE4, symSize: 0x240 }
  - { offsetInCU: 0x7D45, offset: 0x7D45, size: 0x8, addend: 0x0, symName: __ZNSt3__19use_facetB7v160006INS_5ctypeIcEEEERKT_RKNS_6localeE, symObjAddr: 0x457C, symBinAddr: 0x100007378, symSize: 0x2C }
  - { offsetInCU: 0x84E3, offset: 0x84E3, size: 0x8, addend: 0x0, symName: __ZSt28__throw_bad_array_new_lengthB7v160006v, symObjAddr: 0x26A8, symBinAddr: 0x1000054A4, symSize: 0x34 }
  - { offsetInCU: 0xAD31, offset: 0xAD31, size: 0x8, addend: 0x0, symName: __Z5crawl9ParsedUrlPcRm, symObjAddr: 0x0, symBinAddr: 0x100002DFC, symSize: 0x71C }
  - { offsetInCU: 0xAE68, offset: 0xAE68, size: 0x8, addend: 0x0, symName: __ZNSt3__112basic_stringIcNS_11char_traitsIcEENS_9allocatorIcEEEixB7v160006Em, symObjAddr: 0x71C, symBinAddr: 0x100003518, symSize: 0x30 }
  - { offsetInCU: 0xAE9D, offset: 0xAE9D, size: 0x8, addend: 0x0, symName: __ZNSt3__112basic_stringIcNS_11char_traitsIcEENS_9allocatorIcEEEaSB7v160006EOS5_, symObjAddr: 0x74C, symBinAddr: 0x100003548, symSize: 0x34 }
  - { offsetInCU: 0xAED2, offset: 0xAED2, size: 0x8, addend: 0x0, symName: __ZNKSt3__112basic_stringIcNS_11char_traitsIcEENS_9allocatorIcEEE5c_strB7v160006Ev, symObjAddr: 0x800, symBinAddr: 0x1000035FC, symSize: 0x24 }
  - { offsetInCU: 0xAEF8, offset: 0xAEF8, size: 0x8, addend: 0x0, symName: __ZNSt3__113basic_ostreamIcNS_11char_traitsIcEEElsB7v160006EPFRS3_S4_E, symObjAddr: 0x86C, symBinAddr: 0x100003668, symSize: 0x2C }
  - { offsetInCU: 0xAF2C, offset: 0xAF2C, size: 0x8, addend: 0x0, symName: __ZNKSt3__112basic_stringIcNS_11char_traitsIcEENS_9allocatorIcEEE6lengthB7v160006Ev, symObjAddr: 0x8F0, symBinAddr: 0x1000036EC, symSize: 0x24 }
  - { offsetInCU: 0xAF52, offset: 0xAF52, size: 0x8, addend: 0x0, symName: __ZN7HtmlTagC1EPKc13DesiredAction, symObjAddr: 0x948, symBinAddr: 0x100003744, symSize: 0x3C }
  - { offsetInCU: 0xAF98, offset: 0xAF98, size: 0x8, addend: 0x0, symName: _main, symObjAddr: 0x984, symBinAddr: 0x100003780, symSize: 0x440 }
  - { offsetInCU: 0xB0F0, offset: 0xB0F0, size: 0x8, addend: 0x0, symName: __ZNSt3__112basic_stringIcNS_11char_traitsIcEENS_9allocatorIcEEEC1B7v160006IDnEEPKc, symObjAddr: 0xDC4, symBinAddr: 0x100003BC0, symSize: 0x34 }
  - { offsetInCU: 0xB1B0, offset: 0xB1B0, size: 0x8, addend: 0x0, symName: __ZN9ParsedUrlC1ERKNSt3__112basic_stringIcNS0_11char_traitsIcEENS0_9allocatorIcEEEE, symObjAddr: 0xDF8, symBinAddr: 0x100003BF4, symSize: 0x34 }
  - { offsetInCU: 0xB1F2, offset: 0xB1F2, size: 0x8, addend: 0x0, symName: __ZN9ParsedUrlC1ERKS_, symObjAddr: 0xE2C, symBinAddr: 0x100003C28, symSize: 0x34 }
  - { offsetInCU: 0xB227, offset: 0xB227, size: 0x8, addend: 0x0, symName: __ZN9ParsedUrlD1Ev, symObjAddr: 0xE60, symBinAddr: 0x100003C5C, symSize: 0x2C }
  - { offsetInCU: 0xB251, offset: 0xB251, size: 0x8, addend: 0x0, symName: __ZNSt3__16vectorI4LinkNS_9allocatorIS1_EEE5beginB7v160006Ev, symObjAddr: 0xE8C, symBinAddr: 0x100003C88, symSize: 0x30 }
  - { offsetInCU: 0xB279, offset: 0xB279, size: 0x8, addend: 0x0, symName: __ZNSt3__16vectorI4LinkNS_9allocatorIS1_EEE3endB7v160006Ev, symObjAddr: 0xEBC, symBinAddr: 0x100003CB8, symSize: 0x30 }
  - { offsetInCU: 0xB2A1, offset: 0xB2A1, size: 0x8, addend: 0x0, symName: __ZNKSt3__111__wrap_iterIP4LinkEdeB7v160006Ev, symObjAddr: 0xF20, symBinAddr: 0x100003D1C, symSize: 0x18 }
  - { offsetInCU: 0xB2C7, offset: 0xB2C7, size: 0x8, addend: 0x0, symName: __ZN4LinkC1ERKS_, symObjAddr: 0xF38, symBinAddr: 0x100003D34, symSize: 0x34 }
  - { offsetInCU: 0xB2FC, offset: 0xB2FC, size: 0x8, addend: 0x0, symName: __ZN4LinkD1Ev, symObjAddr: 0xFB8, symBinAddr: 0x100003DB4, symSize: 0x2C }
  - { offsetInCU: 0xB328, offset: 0xB328, size: 0x8, addend: 0x0, symName: __ZNSt3__111__wrap_iterIP4LinkEppB7v160006Ev, symObjAddr: 0xFE4, symBinAddr: 0x100003DE0, symSize: 0x20 }
  - { offsetInCU: 0xB3B5, offset: 0xB3B5, size: 0x8, addend: 0x0, symName: __ZN10HtmlParserD1Ev, symObjAddr: 0x1004, symBinAddr: 0x100003E00, symSize: 0x2C }
  - { offsetInCU: 0xB3E1, offset: 0xB3E1, size: 0x8, addend: 0x0, symName: __ZN7HtmlTagC2EPKc13DesiredAction, symObjAddr: 0x1030, symBinAddr: 0x100003E2C, symSize: 0x2C }
  - { offsetInCU: 0xB427, offset: 0xB427, size: 0x8, addend: 0x0, symName: __ZN9ParsedUrlC2ERKNSt3__112basic_stringIcNS0_11char_traitsIcEENS0_9allocatorIcEEEE, symObjAddr: 0x105C, symBinAddr: 0x100003E58, symSize: 0x30C }
  - { offsetInCU: 0xB4C3, offset: 0xB4C3, size: 0x8, addend: 0x0, symName: __ZNSt3__112basic_stringIcNS_11char_traitsIcEENS_9allocatorIcEEEC1B7v160006Ev, symObjAddr: 0x1368, symBinAddr: 0x100004164, symSize: 0x2C }
  - { offsetInCU: 0xB4ED, offset: 0xB4ED, size: 0x8, addend: 0x0, symName: __ZNKSt3__112basic_stringIcNS_11char_traitsIcEENS_9allocatorIcEEE6substrB7v160006Emm, symObjAddr: 0x1394, symBinAddr: 0x100004190, symSize: 0x68 }
  - { offsetInCU: 0xB531, offset: 0xB531, size: 0x8, addend: 0x0, symName: __ZNKSt3__112basic_stringIcNS_11char_traitsIcEENS_9allocatorIcEEEixB7v160006Em, symObjAddr: 0x13FC, symBinAddr: 0x1000041F8, symSize: 0x30 }
  - { offsetInCU: 0xB566, offset: 0xB566, size: 0x8, addend: 0x0, symName: __ZNKSt3__112basic_stringIcNS_11char_traitsIcEENS_9allocatorIcEEE13find_first_ofB7v160006EPKcm, symObjAddr: 0x142C, symBinAddr: 0x100004228, symSize: 0x74 }
  - { offsetInCU: 0xB5AC, offset: 0xB5AC, size: 0x8, addend: 0x0, symName: __ZNSt3__112basic_stringIcNS_11char_traitsIcEENS_9allocatorIcEEEaSB7v160006EPKc, symObjAddr: 0x14A0, symBinAddr: 0x10000429C, symSize: 0x2C }
  - { offsetInCU: 0xB5E1, offset: 0xB5E1, size: 0x8, addend: 0x0, symName: __ZNSt3__112basic_stringIcNS_11char_traitsIcEENS_9allocatorIcEEEC2B7v160006Ev, symObjAddr: 0x14CC, symBinAddr: 0x1000042C8, symSize: 0x54 }
  - { offsetInCU: 0xB610, offset: 0xB610, size: 0x8, addend: 0x0, symName: __ZNSt3__117__compressed_pairINS_12basic_stringIcNS_11char_traitsIcEENS_9allocatorIcEEE5__repES5_EC1B7v160006INS_18__default_init_tagESA_EEOT_OT0_, symObjAddr: 0x1520, symBinAddr: 0x10000431C, symSize: 0x3C }
  - { offsetInCU: 0xB668, offset: 0xB668, size: 0x8, addend: 0x0, symName: __ZNSt3__112basic_stringIcNS_11char_traitsIcEENS_9allocatorIcEEE14__default_initB7v160006Ev, symObjAddr: 0x1578, symBinAddr: 0x100004374, symSize: 0x40 }
  - { offsetInCU: 0xB68E, offset: 0xB68E, size: 0x8, addend: 0x0, symName: __ZNSt3__117__compressed_pairINS_12basic_stringIcNS_11char_traitsIcEENS_9allocatorIcEEE5__repES5_EC2B7v160006INS_18__default_init_tagESA_EEOT_OT0_, symObjAddr: 0x15B8, symBinAddr: 0x1000043B4, symSize: 0x3C }
  - { offsetInCU: 0xB6E6, offset: 0xB6E6, size: 0x8, addend: 0x0, symName: __ZNSt3__122__compressed_pair_elemINS_12basic_stringIcNS_11char_traitsIcEENS_9allocatorIcEEE5__repELi0ELb0EEC2B7v160006ENS_18__default_init_tagE, symObjAddr: 0x15F4, symBinAddr: 0x1000043F0, symSize: 0x14 }
  - { offsetInCU: 0xB71B, offset: 0xB71B, size: 0x8, addend: 0x0, symName: __ZNSt3__122__compressed_pair_elemINS_9allocatorIcEELi1ELb1EEC2B7v160006ENS_18__default_init_tagE, symObjAddr: 0x1608, symBinAddr: 0x100004404, symSize: 0x2C }
  - { offsetInCU: 0xB750, offset: 0xB750, size: 0x8, addend: 0x0, symName: __ZNSt3__19allocatorIcEC2B7v160006Ev, symObjAddr: 0x1634, symBinAddr: 0x100004430, symSize: 0x2C }
  - { offsetInCU: 0xB77A, offset: 0xB77A, size: 0x8, addend: 0x0, symName: __ZNSt3__116__non_trivial_ifILb1ENS_9allocatorIcEEEC2B7v160006Ev, symObjAddr: 0x1660, symBinAddr: 0x10000445C, symSize: 0x14 }
  - { offsetInCU: 0xB7A4, offset: 0xB7A4, size: 0x8, addend: 0x0, symName: __ZNSt3__117__compressed_pairINS_12basic_stringIcNS_11char_traitsIcEENS_9allocatorIcEEE5__repES5_E5firstB7v160006Ev, symObjAddr: 0x1674, symBinAddr: 0x100004470, symSize: 0x24 }
  - { offsetInCU: 0xB7CA, offset: 0xB7CA, size: 0x8, addend: 0x0, symName: __ZNSt3__122__compressed_pair_elemINS_12basic_stringIcNS_11char_traitsIcEENS_9allocatorIcEEE5__repELi0ELb0EE5__getB7v160006Ev, symObjAddr: 0x1698, symBinAddr: 0x100004494, symSize: 0x14 }
  - { offsetInCU: 0xB7F0, offset: 0xB7F0, size: 0x8, addend: 0x0, symName: __ZNSt3__19allocatorIcEC1B7v160006Ev, symObjAddr: 0x16AC, symBinAddr: 0x1000044A8, symSize: 0x2C }
  - { offsetInCU: 0xB81A, offset: 0xB81A, size: 0x8, addend: 0x0, symName: __ZNKSt3__112basic_stringIcNS_11char_traitsIcEENS_9allocatorIcEEE4dataB7v160006Ev, symObjAddr: 0x16D8, symBinAddr: 0x1000044D4, symSize: 0x28 }
  - { offsetInCU: 0xB840, offset: 0xB840, size: 0x8, addend: 0x0, symName: __ZNKSt3__112basic_stringIcNS_11char_traitsIcEENS_9allocatorIcEEE13__get_pointerB7v160006Ev, symObjAddr: 0x1714, symBinAddr: 0x100004510, symSize: 0x54 }
  - { offsetInCU: 0xB866, offset: 0xB866, size: 0x8, addend: 0x0, symName: __ZNKSt3__112basic_stringIcNS_11char_traitsIcEENS_9allocatorIcEEE9__is_longB7v160006Ev, symObjAddr: 0x1768, symBinAddr: 0x100004564, symSize: 0x38 }
  - { offsetInCU: 0xB88C, offset: 0xB88C, size: 0x8, addend: 0x0, symName: __ZNKSt3__112basic_stringIcNS_11char_traitsIcEENS_9allocatorIcEEE18__get_long_pointerB7v160006Ev, symObjAddr: 0x17A0, symBinAddr: 0x10000459C, symSize: 0x28 }
  - { offsetInCU: 0xB8B2, offset: 0xB8B2, size: 0x8, addend: 0x0, symName: __ZNKSt3__112basic_stringIcNS_11char_traitsIcEENS_9allocatorIcEEE19__get_short_pointerB7v160006Ev, symObjAddr: 0x17C8, symBinAddr: 0x1000045C4, symSize: 0x28 }
  - { offsetInCU: 0xB8D8, offset: 0xB8D8, size: 0x8, addend: 0x0, symName: __ZNKSt3__117__compressed_pairINS_12basic_stringIcNS_11char_traitsIcEENS_9allocatorIcEEE5__repES5_E5firstB7v160006Ev, symObjAddr: 0x17F0, symBinAddr: 0x1000045EC, symSize: 0x24 }
  - { offsetInCU: 0xB8FE, offset: 0xB8FE, size: 0x8, addend: 0x0, symName: __ZNKSt3__122__compressed_pair_elemINS_12basic_stringIcNS_11char_traitsIcEENS_9allocatorIcEEE5__repELi0ELb0EE5__getB7v160006Ev, symObjAddr: 0x1814, symBinAddr: 0x100004610, symSize: 0x14 }
  - { offsetInCU: 0xB924, offset: 0xB924, size: 0x8, addend: 0x0, symName: __ZNSt3__114pointer_traitsIPKcE10pointer_toB7v160006ERS1_, symObjAddr: 0x1828, symBinAddr: 0x100004624, symSize: 0x14 }
  - { offsetInCU: 0xB947, offset: 0xB947, size: 0x8, addend: 0x0, symName: __ZNKSt3__112basic_stringIcNS_11char_traitsIcEENS_9allocatorIcEEE4sizeB7v160006Ev, symObjAddr: 0x192C, symBinAddr: 0x100004728, symSize: 0x54 }
  - { offsetInCU: 0xB96D, offset: 0xB96D, size: 0x8, addend: 0x0, symName: __ZNSt3__111char_traitsIcE6lengthEPKc, symObjAddr: 0x1980, symBinAddr: 0x10000477C, symSize: 0x34 }
  - { offsetInCU: 0xB990, offset: 0xB990, size: 0x8, addend: 0x0, symName: __ZNSt3__111char_traitsIcE2eqEcc, symObjAddr: 0x1A84, symBinAddr: 0x100004880, symSize: 0x28 }
  - { offsetInCU: 0xB9C1, offset: 0xB9C1, size: 0x8, addend: 0x0, symName: __ZNKSt3__112basic_stringIcNS_11char_traitsIcEENS_9allocatorIcEEE15__get_long_sizeB7v160006Ev, symObjAddr: 0x1AAC, symBinAddr: 0x1000048A8, symSize: 0x28 }
  - { offsetInCU: 0xB9E7, offset: 0xB9E7, size: 0x8, addend: 0x0, symName: __ZNKSt3__112basic_stringIcNS_11char_traitsIcEENS_9allocatorIcEEE16__get_short_sizeB7v160006Ev, symObjAddr: 0x1AD4, symBinAddr: 0x1000048D0, symSize: 0x34 }
  - { offsetInCU: 0xBA0D, offset: 0xBA0D, size: 0x8, addend: 0x0, symName: __ZN9ParsedUrlC2ERKS_, symObjAddr: 0x1B2C, symBinAddr: 0x100004928, symSize: 0x118 }
  - { offsetInCU: 0xBA42, offset: 0xBA42, size: 0x8, addend: 0x0, symName: __ZN9ParsedUrlD2Ev, symObjAddr: 0x1C44, symBinAddr: 0x100004A40, symSize: 0x5C }
  - { offsetInCU: 0xBA6C, offset: 0xBA6C, size: 0x8, addend: 0x0, symName: __ZNKSt3__111__wrap_iterIP4LinkE4baseB7v160006Ev, symObjAddr: 0x1CE8, symBinAddr: 0x100004AE4, symSize: 0x18 }
  - { offsetInCU: 0xBA92, offset: 0xBA92, size: 0x8, addend: 0x0, symName: __ZN4LinkC2ERKS_, symObjAddr: 0x1D00, symBinAddr: 0x100004AFC, symSize: 0x70 }
  - { offsetInCU: 0xBAC7, offset: 0xBAC7, size: 0x8, addend: 0x0, symName: __ZNSt3__16vectorINS_12basic_stringIcNS_11char_traitsIcEENS_9allocatorIcEEEENS4_IS6_EEEC1ERKS8_, symObjAddr: 0x1D70, symBinAddr: 0x100004B6C, symSize: 0x34 }
  - { offsetInCU: 0xBB02, offset: 0xBB02, size: 0x8, addend: 0x0, symName: __ZNSt3__16vectorINS_12basic_stringIcNS_11char_traitsIcEENS_9allocatorIcEEEENS4_IS6_EEEC2ERKS8_, symObjAddr: 0x1DA4, symBinAddr: 0x100004BA0, symSize: 0x114 }
  - { offsetInCU: 0xBB6B, offset: 0xBB6B, size: 0x8, addend: 0x0, symName: __ZNSt3__116allocator_traitsINS_9allocatorINS_12basic_stringIcNS_11char_traitsIcEENS1_IcEEEEEEE37select_on_container_copy_constructionB7v160006IS7_vvEES7_RKS7_, symObjAddr: 0x1EB8, symBinAddr: 0x100004CB4, symSize: 0x10 }
  - { offsetInCU: 0xBB9A, offset: 0xBB9A, size: 0x8, addend: 0x0, symName: __ZNKSt3__16vectorINS_12basic_stringIcNS_11char_traitsIcEENS_9allocatorIcEEEENS4_IS6_EEE7__allocB7v160006Ev, symObjAddr: 0x1EC8, symBinAddr: 0x100004CC4, symSize: 0x28 }
  - { offsetInCU: 0xBBCA, offset: 0xBBCA, size: 0x8, addend: 0x0, symName: __ZNSt3__117__compressed_pairIPNS_12basic_stringIcNS_11char_traitsIcEENS_9allocatorIcEEEENS4_IS6_EEEC1B7v160006IDnS8_EEOT_OT0_, symObjAddr: 0x1EF0, symBinAddr: 0x100004CEC, symSize: 0x3C }
  - { offsetInCU: 0xBC22, offset: 0xBC22, size: 0x8, addend: 0x0, symName: __ZNSt3__16vectorINS_12basic_stringIcNS_11char_traitsIcEENS_9allocatorIcEEEENS4_IS6_EEE16__destroy_vectorC1ERS8_, symObjAddr: 0x1F6C, symBinAddr: 0x100004D68, symSize: 0x34 }
  - { offsetInCU: 0xBC5B, offset: 0xBC5B, size: 0x8, addend: 0x0, symName: __ZNKSt3__16vectorINS_12basic_stringIcNS_11char_traitsIcEENS_9allocatorIcEEEENS4_IS6_EEE4sizeB7v160006Ev, symObjAddr: 0x1FB0, symBinAddr: 0x100004DAC, symSize: 0x28 }
  - { offsetInCU: 0xBC81, offset: 0xBC81, size: 0x8, addend: 0x0, symName: __ZNSt3__16vectorINS_12basic_stringIcNS_11char_traitsIcEENS_9allocatorIcEEEENS4_IS6_EEE11__vallocateB7v160006Em, symObjAddr: 0x1FD8, symBinAddr: 0x100004DD4, symSize: 0xB4 }
  - { offsetInCU: 0xBCC5, offset: 0xBCC5, size: 0x8, addend: 0x0, symName: __ZNSt3__16vectorINS_12basic_stringIcNS_11char_traitsIcEENS_9allocatorIcEEEENS4_IS6_EEE18__construct_at_endIPS6_Li0EEEvT_SB_m, symObjAddr: 0x208C, symBinAddr: 0x100004E88, symSize: 0x8C }
  - { offsetInCU: 0xBD38, offset: 0xBD38, size: 0x8, addend: 0x0, symName: __ZNSt3__128__exception_guard_exceptionsINS_6vectorINS_12basic_stringIcNS_11char_traitsIcEENS_9allocatorIcEEEENS5_IS7_EEE16__destroy_vectorEE10__completeB7v160006Ev, symObjAddr: 0x2118, symBinAddr: 0x100004F14, symSize: 0x1C }
  - { offsetInCU: 0xBD5E, offset: 0xBD5E, size: 0x8, addend: 0x0, symName: __ZNSt3__128__exception_guard_exceptionsINS_6vectorINS_12basic_stringIcNS_11char_traitsIcEENS_9allocatorIcEEEENS5_IS7_EEE16__destroy_vectorEED1B7v160006Ev, symObjAddr: 0x2134, symBinAddr: 0x100004F30, symSize: 0x2C }
  - { offsetInCU: 0xBD88, offset: 0xBD88, size: 0x8, addend: 0x0, symName: __ZNKSt3__117__compressed_pairIPNS_12basic_stringIcNS_11char_traitsIcEENS_9allocatorIcEEEENS4_IS6_EEE6secondB7v160006Ev, symObjAddr: 0x2160, symBinAddr: 0x100004F5C, symSize: 0x24 }
  - { offsetInCU: 0xBDAE, offset: 0xBDAE, size: 0x8, addend: 0x0, symName: __ZNKSt3__122__compressed_pair_elemINS_9allocatorINS_12basic_stringIcNS_11char_traitsIcEENS1_IcEEEEEELi1ELb1EE5__getB7v160006Ev, symObjAddr: 0x2184, symBinAddr: 0x100004F80, symSize: 0x14 }
  - { offsetInCU: 0xBDD4, offset: 0xBDD4, size: 0x8, addend: 0x0, symName: __ZNSt3__117__compressed_pairIPNS_12basic_stringIcNS_11char_traitsIcEENS_9allocatorIcEEEENS4_IS6_EEEC2B7v160006IDnS8_EEOT_OT0_, symObjAddr: 0x2198, symBinAddr: 0x100004F94, symSize: 0x44 }
  - { offsetInCU: 0xBE2C, offset: 0xBE2C, size: 0x8, addend: 0x0, symName: __ZNSt3__122__compressed_pair_elemIPNS_12basic_stringIcNS_11char_traitsIcEENS_9allocatorIcEEEELi0ELb0EEC2B7v160006IDnvEEOT_, symObjAddr: 0x21DC, symBinAddr: 0x100004FD8, symSize: 0x1C }
  - { offsetInCU: 0xBE6E, offset: 0xBE6E, size: 0x8, addend: 0x0, symName: __ZNSt3__122__compressed_pair_elemINS_9allocatorINS_12basic_stringIcNS_11char_traitsIcEENS1_IcEEEEEELi1ELb1EEC2B7v160006IS7_vEEOT_, symObjAddr: 0x21F8, symBinAddr: 0x100004FF4, symSize: 0x18 }
  - { offsetInCU: 0xBEB0, offset: 0xBEB0, size: 0x8, addend: 0x0, symName: __ZNSt3__128__exception_guard_exceptionsINS_6vectorINS_12basic_stringIcNS_11char_traitsIcEENS_9allocatorIcEEEENS5_IS7_EEE16__destroy_vectorEEC1B7v160006ESA_, symObjAddr: 0x2210, symBinAddr: 0x10000500C, symSize: 0x34 }
  - { offsetInCU: 0xBEE8, offset: 0xBEE8, size: 0x8, addend: 0x0, symName: __ZNSt3__128__exception_guard_exceptionsINS_6vectorINS_12basic_stringIcNS_11char_traitsIcEENS_9allocatorIcEEEENS5_IS7_EEE16__destroy_vectorEEC2B7v160006ESA_, symObjAddr: 0x2244, symBinAddr: 0x100005040, symSize: 0x24 }
  - { offsetInCU: 0xBF20, offset: 0xBF20, size: 0x8, addend: 0x0, symName: __ZNSt3__16vectorINS_12basic_stringIcNS_11char_traitsIcEENS_9allocatorIcEEEENS4_IS6_EEE16__destroy_vectorC2ERS8_, symObjAddr: 0x2268, symBinAddr: 0x100005064, symSize: 0x20 }
  - { offsetInCU: 0xBF59, offset: 0xBF59, size: 0x8, addend: 0x0, symName: __ZNKSt3__16vectorINS_12basic_stringIcNS_11char_traitsIcEENS_9allocatorIcEEEENS4_IS6_EEE8max_sizeEv, symObjAddr: 0x2288, symBinAddr: 0x100005084, symSize: 0x60 }
  - { offsetInCU: 0xBF81, offset: 0xBF81, size: 0x8, addend: 0x0, symName: __ZNKSt3__16vectorINS_12basic_stringIcNS_11char_traitsIcEENS_9allocatorIcEEEENS4_IS6_EEE20__throw_length_errorB7v160006Ev, symObjAddr: 0x22E8, symBinAddr: 0x1000050E4, symSize: 0x1C }
  - { offsetInCU: 0xBFA7, offset: 0xBFA7, size: 0x8, addend: 0x0, symName: __ZNSt3__16vectorINS_12basic_stringIcNS_11char_traitsIcEENS_9allocatorIcEEEENS4_IS6_EEE7__allocB7v160006Ev, symObjAddr: 0x2344, symBinAddr: 0x100005140, symSize: 0x28 }
  - { offsetInCU: 0xBFCD, offset: 0xBFCD, size: 0x8, addend: 0x0, symName: __ZNSt3__16vectorINS_12basic_stringIcNS_11char_traitsIcEENS_9allocatorIcEEEENS4_IS6_EEE9__end_capB7v160006Ev, symObjAddr: 0x236C, symBinAddr: 0x100005168, symSize: 0x28 }
  - { offsetInCU: 0xBFF3, offset: 0xBFF3, size: 0x8, addend: 0x0, symName: __ZNKSt3__16vectorINS_12basic_stringIcNS_11char_traitsIcEENS_9allocatorIcEEEENS4_IS6_EEE14__annotate_newB7v160006Em, symObjAddr: 0x2394, symBinAddr: 0x100005190, symSize: 0xC8 }
  - { offsetInCU: 0xC028, offset: 0xC028, size: 0x8, addend: 0x0, symName: __ZNSt3__116allocator_traitsINS_9allocatorINS_12basic_stringIcNS_11char_traitsIcEENS1_IcEEEEEEE8max_sizeB7v160006IS7_vEEmRKS7_, symObjAddr: 0x2488, symBinAddr: 0x100005284, symSize: 0x24 }
  - { offsetInCU: 0xC056, offset: 0xC056, size: 0x8, addend: 0x0, symName: __ZNSt3__114numeric_limitsIlE3maxB7v160006Ev, symObjAddr: 0x24AC, symBinAddr: 0x1000052A8, symSize: 0x14 }
  - { offsetInCU: 0xC07E, offset: 0xC07E, size: 0x8, addend: 0x0, symName: __ZNKSt3__16__lessImmEclB7v160006ERKmS3_, symObjAddr: 0x2514, symBinAddr: 0x100005310, symSize: 0x34 }
  - { offsetInCU: 0xC0C0, offset: 0xC0C0, size: 0x8, addend: 0x0, symName: __ZNKSt3__19allocatorINS_12basic_stringIcNS_11char_traitsIcEENS0_IcEEEEE8max_sizeB7v160006Ev, symObjAddr: 0x2548, symBinAddr: 0x100005344, symSize: 0x18 }
  - { offsetInCU: 0xC0E6, offset: 0xC0E6, size: 0x8, addend: 0x0, symName: __ZNSt3__123__libcpp_numeric_limitsIlLb1EE3maxB7v160006Ev, symObjAddr: 0x2560, symBinAddr: 0x10000535C, symSize: 0x8 }
  - { offsetInCU: 0xC0FA, offset: 0xC0FA, size: 0x8, addend: 0x0, symName: __ZNSt12length_errorC1B7v160006EPKc, symObjAddr: 0x25CC, symBinAddr: 0x1000053C8, symSize: 0x34 }
  - { offsetInCU: 0xC132, offset: 0xC132, size: 0x8, addend: 0x0, symName: __ZNSt12length_errorC2B7v160006EPKc, symObjAddr: 0x2600, symBinAddr: 0x1000053FC, symSize: 0x4C }
  - { offsetInCU: 0xC16A, offset: 0xC16A, size: 0x8, addend: 0x0, symName: __ZNSt3__19allocatorINS_12basic_stringIcNS_11char_traitsIcEENS0_IcEEEEE8allocateB7v160006Em, symObjAddr: 0x264C, symBinAddr: 0x100005448, symSize: 0x5C }
  - { offsetInCU: 0xC19E, offset: 0xC19E, size: 0x8, addend: 0x0, symName: __ZNSt3__117__compressed_pairIPNS_12basic_stringIcNS_11char_traitsIcEENS_9allocatorIcEEEENS4_IS6_EEE6secondB7v160006Ev, symObjAddr: 0x2728, symBinAddr: 0x100005524, symSize: 0x24 }
  - { offsetInCU: 0xC1C4, offset: 0xC1C4, size: 0x8, addend: 0x0, symName: __ZNSt3__122__compressed_pair_elemINS_9allocatorINS_12basic_stringIcNS_11char_traitsIcEENS1_IcEEEEEELi1ELb1EE5__getB7v160006Ev, symObjAddr: 0x274C, symBinAddr: 0x100005548, symSize: 0x14 }
  - { offsetInCU: 0xC1EA, offset: 0xC1EA, size: 0x8, addend: 0x0, symName: __ZNSt3__117__compressed_pairIPNS_12basic_stringIcNS_11char_traitsIcEENS_9allocatorIcEEEENS4_IS6_EEE5firstB7v160006Ev, symObjAddr: 0x2760, symBinAddr: 0x10000555C, symSize: 0x24 }
  - { offsetInCU: 0xC210, offset: 0xC210, size: 0x8, addend: 0x0, symName: __ZNSt3__122__compressed_pair_elemIPNS_12basic_stringIcNS_11char_traitsIcEENS_9allocatorIcEEEELi0ELb0EE5__getB7v160006Ev, symObjAddr: 0x2784, symBinAddr: 0x100005580, symSize: 0x14 }
  - { offsetInCU: 0xC236, offset: 0xC236, size: 0x8, addend: 0x0, symName: __ZNKSt3__16vectorINS_12basic_stringIcNS_11char_traitsIcEENS_9allocatorIcEEEENS4_IS6_EEE31__annotate_contiguous_containerB7v160006EPKvSA_SA_SA_, symObjAddr: 0x2798, symBinAddr: 0x100005594, symSize: 0x20 }
  - { offsetInCU: 0xC28C, offset: 0xC28C, size: 0x8, addend: 0x0, symName: __ZNKSt3__16vectorINS_12basic_stringIcNS_11char_traitsIcEENS_9allocatorIcEEEENS4_IS6_EEE4dataB7v160006Ev, symObjAddr: 0x27B8, symBinAddr: 0x1000055B4, symSize: 0x28 }
  - { offsetInCU: 0xC2B2, offset: 0xC2B2, size: 0x8, addend: 0x0, symName: __ZNKSt3__16vectorINS_12basic_stringIcNS_11char_traitsIcEENS_9allocatorIcEEEENS4_IS6_EEE8capacityB7v160006Ev, symObjAddr: 0x27E0, symBinAddr: 0x1000055DC, symSize: 0x40 }
  - { offsetInCU: 0xC2D8, offset: 0xC2D8, size: 0x8, addend: 0x0, symName: __ZNKSt3__16vectorINS_12basic_stringIcNS_11char_traitsIcEENS_9allocatorIcEEEENS4_IS6_EEE9__end_capB7v160006Ev, symObjAddr: 0x2834, symBinAddr: 0x100005630, symSize: 0x28 }
  - { offsetInCU: 0xC2FE, offset: 0xC2FE, size: 0x8, addend: 0x0, symName: __ZNKSt3__117__compressed_pairIPNS_12basic_stringIcNS_11char_traitsIcEENS_9allocatorIcEEEENS4_IS6_EEE5firstB7v160006Ev, symObjAddr: 0x285C, symBinAddr: 0x100005658, symSize: 0x24 }
  - { offsetInCU: 0xC324, offset: 0xC324, size: 0x8, addend: 0x0, symName: __ZNKSt3__122__compressed_pair_elemIPNS_12basic_stringIcNS_11char_traitsIcEENS_9allocatorIcEEEELi0ELb0EE5__getB7v160006Ev, symObjAddr: 0x2880, symBinAddr: 0x10000567C, symSize: 0x14 }
  - { offsetInCU: 0xC363, offset: 0xC363, size: 0x8, addend: 0x0, symName: __ZNSt3__16vectorINS_12basic_stringIcNS_11char_traitsIcEENS_9allocatorIcEEEENS4_IS6_EEE21_ConstructTransactionC1B7v160006ERS8_m, symObjAddr: 0x2894, symBinAddr: 0x100005690, symSize: 0x3C }
  - { offsetInCU: 0xC3AB, offset: 0xC3AB, size: 0x8, addend: 0x0, symName: __ZNSt3__16vectorINS_12basic_stringIcNS_11char_traitsIcEENS_9allocatorIcEEEENS4_IS6_EEE21_ConstructTransactionD1B7v160006Ev, symObjAddr: 0x29C4, symBinAddr: 0x1000057C0, symSize: 0x2C }
  - { offsetInCU: 0xC3D5, offset: 0xC3D5, size: 0x8, addend: 0x0, symName: __ZNSt3__16vectorINS_12basic_stringIcNS_11char_traitsIcEENS_9allocatorIcEEEENS4_IS6_EEE21_ConstructTransactionC2B7v160006ERS8_m, symObjAddr: 0x29F0, symBinAddr: 0x1000057EC, symSize: 0x4C }
  - { offsetInCU: 0xC41D, offset: 0xC41D, size: 0x8, addend: 0x0, symName: __ZNSt3__129_AllocatorDestroyRangeReverseINS_9allocatorINS_12basic_stringIcNS_11char_traitsIcEENS1_IcEEEEEEPS6_EC1B7v160006ERS7_RS8_SB_, symObjAddr: 0x2A88, symBinAddr: 0x100005884, symSize: 0x44 }
  - { offsetInCU: 0xC474, offset: 0xC474, size: 0x8, addend: 0x0, symName: __ZNSt3__116allocator_traitsINS_9allocatorINS_12basic_stringIcNS_11char_traitsIcEENS1_IcEEEEEEE9constructB7v160006IS6_JRS6_EvEEvRS7_PT_DpOT0_, symObjAddr: 0x2ACC, symBinAddr: 0x1000058C8, symSize: 0x34 }
  - { offsetInCU: 0xC4CB, offset: 0xC4CB, size: 0x8, addend: 0x0, symName: __ZNSt3__128__exception_guard_exceptionsINS_29_AllocatorDestroyRangeReverseINS_9allocatorINS_12basic_stringIcNS_11char_traitsIcEENS2_IcEEEEEEPS7_EEE10__completeB7v160006Ev, symObjAddr: 0x2B00, symBinAddr: 0x1000058FC, symSize: 0x1C }
  - { offsetInCU: 0xC4F1, offset: 0xC4F1, size: 0x8, addend: 0x0, symName: __ZNSt3__128__exception_guard_exceptionsINS_29_AllocatorDestroyRangeReverseINS_9allocatorINS_12basic_stringIcNS_11char_traitsIcEENS2_IcEEEEEEPS7_EEED1B7v160006Ev, symObjAddr: 0x2B1C, symBinAddr: 0x100005918, symSize: 0x2C }
  - { offsetInCU: 0xC51B, offset: 0xC51B, size: 0x8, addend: 0x0, symName: __ZNSt3__128__exception_guard_exceptionsINS_29_AllocatorDestroyRangeReverseINS_9allocatorINS_12basic_stringIcNS_11char_traitsIcEENS2_IcEEEEEEPS7_EEEC1B7v160006ESA_, symObjAddr: 0x2B48, symBinAddr: 0x100005944, symSize: 0x34 }
  - { offsetInCU: 0xC554, offset: 0xC554, size: 0x8, addend: 0x0, symName: __ZNSt3__128__exception_guard_exceptionsINS_29_AllocatorDestroyRangeReverseINS_9allocatorINS_12basic_stringIcNS_11char_traitsIcEENS2_IcEEEEEEPS7_EEEC2B7v160006ESA_, symObjAddr: 0x2B7C, symBinAddr: 0x100005978, symSize: 0x30 }
  - { offsetInCU: 0xC58D, offset: 0xC58D, size: 0x8, addend: 0x0, symName: __ZNSt3__129_AllocatorDestroyRangeReverseINS_9allocatorINS_12basic_stringIcNS_11char_traitsIcEENS1_IcEEEEEEPS6_EC2B7v160006ERS7_RS8_SB_, symObjAddr: 0x2BAC, symBinAddr: 0x1000059A8, symSize: 0x38 }
  - { offsetInCU: 0xC5E4, offset: 0xC5E4, size: 0x8, addend: 0x0, symName: __ZNSt3__19allocatorINS_12basic_stringIcNS_11char_traitsIcEENS0_IcEEEEE9constructB7v160006IS5_JRS5_EEEvPT_DpOT0_, symObjAddr: 0x2BE4, symBinAddr: 0x1000059E0, symSize: 0x30 }
  - { offsetInCU: 0xC63A, offset: 0xC63A, size: 0x8, addend: 0x0, symName: __ZNSt3__128__exception_guard_exceptionsINS_29_AllocatorDestroyRangeReverseINS_9allocatorINS_12basic_stringIcNS_11char_traitsIcEENS2_IcEEEEEEPS7_EEED2B7v160006Ev, symObjAddr: 0x2C14, symBinAddr: 0x100005A10, symSize: 0x50 }
  - { offsetInCU: 0xC664, offset: 0xC664, size: 0x8, addend: 0x0, symName: __ZNKSt3__129_AllocatorDestroyRangeReverseINS_9allocatorINS_12basic_stringIcNS_11char_traitsIcEENS1_IcEEEEEEPS6_EclB7v160006Ev, symObjAddr: 0x2C64, symBinAddr: 0x100005A60, symSize: 0x68 }
  - { offsetInCU: 0xC68A, offset: 0xC68A, size: 0x8, addend: 0x0, symName: __ZNSt3__116reverse_iteratorIPNS_12basic_stringIcNS_11char_traitsIcEENS_9allocatorIcEEEEEC1B7v160006ES7_, symObjAddr: 0x2D3C, symBinAddr: 0x100005B38, symSize: 0x34 }
  - { offsetInCU: 0xC6C2, offset: 0xC6C2, size: 0x8, addend: 0x0, symName: __ZNSt3__116allocator_traitsINS_9allocatorINS_12basic_stringIcNS_11char_traitsIcEENS1_IcEEEEEEE7destroyB7v160006IS6_vEEvRS7_PT_, symObjAddr: 0x2DB8, symBinAddr: 0x100005BB4, symSize: 0x2C }
  - { offsetInCU: 0xC6FF, offset: 0xC6FF, size: 0x8, addend: 0x0, symName: __ZNSt3__116reverse_iteratorIPNS_12basic_stringIcNS_11char_traitsIcEENS_9allocatorIcEEEEEppB7v160006Ev, symObjAddr: 0x2E08, symBinAddr: 0x100005C04, symSize: 0x20 }
  - { offsetInCU: 0xC725, offset: 0xC725, size: 0x8, addend: 0x0, symName: __ZNKSt3__116reverse_iteratorIPNS_12basic_stringIcNS_11char_traitsIcEENS_9allocatorIcEEEEE4baseB7v160006Ev, symObjAddr: 0x2E28, symBinAddr: 0x100005C24, symSize: 0x18 }
  - { offsetInCU: 0xC74B, offset: 0xC74B, size: 0x8, addend: 0x0, symName: __ZNSt3__19allocatorINS_12basic_stringIcNS_11char_traitsIcEENS0_IcEEEEE7destroyB7v160006EPS5_, symObjAddr: 0x2E40, symBinAddr: 0x100005C3C, symSize: 0x28 }
  - { offsetInCU: 0xC784, offset: 0xC784, size: 0x8, addend: 0x0, symName: __ZNSt3__119__to_address_helperINS_16reverse_iteratorIPNS_12basic_stringIcNS_11char_traitsIcEENS_9allocatorIcEEEEEEvE6__callB7v160006ERKS9_, symObjAddr: 0x2E68, symBinAddr: 0x100005C64, symSize: 0x38 }
  - { offsetInCU: 0xC7A7, offset: 0xC7A7, size: 0x8, addend: 0x0, symName: __ZNKSt3__116reverse_iteratorIPNS_12basic_stringIcNS_11char_traitsIcEENS_9allocatorIcEEEEEptB7v160006Ev, symObjAddr: 0x2EA0, symBinAddr: 0x100005C9C, symSize: 0x24 }
  - { offsetInCU: 0xC7CD, offset: 0xC7CD, size: 0x8, addend: 0x0, symName: __ZNKSt3__116reverse_iteratorIPNS_12basic_stringIcNS_11char_traitsIcEENS_9allocatorIcEEEEEdeB7v160006Ev, symObjAddr: 0x2EC4, symBinAddr: 0x100005CC0, symSize: 0x28 }
  - { offsetInCU: 0xC801, offset: 0xC801, size: 0x8, addend: 0x0, symName: __ZNSt3__116reverse_iteratorIPNS_12basic_stringIcNS_11char_traitsIcEENS_9allocatorIcEEEEEC2B7v160006ES7_, symObjAddr: 0x2EEC, symBinAddr: 0x100005CE8, symSize: 0x28 }
  - { offsetInCU: 0xC839, offset: 0xC839, size: 0x8, addend: 0x0, symName: __ZNSt3__16vectorINS_12basic_stringIcNS_11char_traitsIcEENS_9allocatorIcEEEENS4_IS6_EEE21_ConstructTransactionD2B7v160006Ev, symObjAddr: 0x2F14, symBinAddr: 0x100005D10, symSize: 0x20 }
  - { offsetInCU: 0xC863, offset: 0xC863, size: 0x8, addend: 0x0, symName: __ZNSt3__128__exception_guard_exceptionsINS_6vectorINS_12basic_stringIcNS_11char_traitsIcEENS_9allocatorIcEEEENS5_IS7_EEE16__destroy_vectorEED2B7v160006Ev, symObjAddr: 0x2F34, symBinAddr: 0x100005D30, symSize: 0x50 }
  - { offsetInCU: 0xC88D, offset: 0xC88D, size: 0x8, addend: 0x0, symName: __ZNSt3__16vectorINS_12basic_stringIcNS_11char_traitsIcEENS_9allocatorIcEEEENS4_IS6_EEE16__destroy_vectorclB7v160006Ev, symObjAddr: 0x2F84, symBinAddr: 0x100005D80, symSize: 0x9C }
  - { offsetInCU: 0xC8B3, offset: 0xC8B3, size: 0x8, addend: 0x0, symName: __ZNKSt3__16vectorINS_12basic_stringIcNS_11char_traitsIcEENS_9allocatorIcEEEENS4_IS6_EEE17__annotate_deleteB7v160006Ev, symObjAddr: 0x3020, symBinAddr: 0x100005E1C, symSize: 0xD4 }
  - { offsetInCU: 0xC8D9, offset: 0xC8D9, size: 0x8, addend: 0x0, symName: __ZNSt3__16vectorINS_12basic_stringIcNS_11char_traitsIcEENS_9allocatorIcEEEENS4_IS6_EEE7__clearB7v160006Ev, symObjAddr: 0x3104, symBinAddr: 0x100005F00, symSize: 0x28 }
  - { offsetInCU: 0xC8FF, offset: 0xC8FF, size: 0x8, addend: 0x0, symName: __ZNSt3__116allocator_traitsINS_9allocatorINS_12basic_stringIcNS_11char_traitsIcEENS1_IcEEEEEEE10deallocateB7v160006ERS7_PS6_m, symObjAddr: 0x312C, symBinAddr: 0x100005F28, symSize: 0x34 }
  - { offsetInCU: 0xC941, offset: 0xC941, size: 0x8, addend: 0x0, symName: __ZNSt3__16vectorINS_12basic_stringIcNS_11char_traitsIcEENS_9allocatorIcEEEENS4_IS6_EEE22__base_destruct_at_endB7v160006EPS6_, symObjAddr: 0x3160, symBinAddr: 0x100005F5C, symSize: 0x8C }
  - { offsetInCU: 0xC985, offset: 0xC985, size: 0x8, addend: 0x0, symName: __ZNSt3__19allocatorINS_12basic_stringIcNS_11char_traitsIcEENS0_IcEEEEE10deallocateB7v160006EPS5_m, symObjAddr: 0x31EC, symBinAddr: 0x100005FE8, symSize: 0x44 }
  - { offsetInCU: 0xC9C7, offset: 0xC9C7, size: 0x8, addend: 0x0, symName: __ZN4LinkD2Ev, symObjAddr: 0x32AC, symBinAddr: 0x1000060A8, symSize: 0x38 }
  - { offsetInCU: 0xC9F3, offset: 0xC9F3, size: 0x8, addend: 0x0, symName: __ZNSt3__16vectorINS_12basic_stringIcNS_11char_traitsIcEENS_9allocatorIcEEEENS4_IS6_EEED1B7v160006Ev, symObjAddr: 0x32E4, symBinAddr: 0x1000060E0, symSize: 0x2C }
  - { offsetInCU: 0xCA1D, offset: 0xCA1D, size: 0x8, addend: 0x0, symName: __ZNSt3__16vectorINS_12basic_stringIcNS_11char_traitsIcEENS_9allocatorIcEEEENS4_IS6_EEED2B7v160006Ev, symObjAddr: 0x3310, symBinAddr: 0x10000610C, symSize: 0x44 }
  - { offsetInCU: 0xCA47, offset: 0xCA47, size: 0x8, addend: 0x0, symName: __ZN10HtmlParserD2Ev, symObjAddr: 0x3354, symBinAddr: 0x100006150, symSize: 0x50 }
  - { offsetInCU: 0xCA73, offset: 0xCA73, size: 0x8, addend: 0x0, symName: __ZNSt3__16vectorI4LinkNS_9allocatorIS1_EEED1B7v160006Ev, symObjAddr: 0x33A4, symBinAddr: 0x1000061A0, symSize: 0x2C }
  - { offsetInCU: 0xCA9D, offset: 0xCA9D, size: 0x8, addend: 0x0, symName: __ZNSt3__16vectorI4LinkNS_9allocatorIS1_EEED2B7v160006Ev, symObjAddr: 0x33D0, symBinAddr: 0x1000061CC, symSize: 0x44 }
  - { offsetInCU: 0xCAC7, offset: 0xCAC7, size: 0x8, addend: 0x0, symName: __ZNSt3__16vectorI4LinkNS_9allocatorIS1_EEE16__destroy_vectorC1ERS4_, symObjAddr: 0x3414, symBinAddr: 0x100006210, symSize: 0x34 }
  - { offsetInCU: 0xCB00, offset: 0xCB00, size: 0x8, addend: 0x0, symName: __ZNSt3__16vectorI4LinkNS_9allocatorIS1_EEE16__destroy_vectorclB7v160006Ev, symObjAddr: 0x3448, symBinAddr: 0x100006244, symSize: 0x9C }
  - { offsetInCU: 0xCB26, offset: 0xCB26, size: 0x8, addend: 0x0, symName: __ZNSt3__16vectorI4LinkNS_9allocatorIS1_EEE16__destroy_vectorC2ERS4_, symObjAddr: 0x34E4, symBinAddr: 0x1000062E0, symSize: 0x20 }
  - { offsetInCU: 0xCB5F, offset: 0xCB5F, size: 0x8, addend: 0x0, symName: __ZNKSt3__16vectorI4LinkNS_9allocatorIS1_EEE17__annotate_deleteB7v160006Ev, symObjAddr: 0x3504, symBinAddr: 0x100006300, symSize: 0xD4 }
  - { offsetInCU: 0xCB85, offset: 0xCB85, size: 0x8, addend: 0x0, symName: __ZNSt3__16vectorI4LinkNS_9allocatorIS1_EEE7__clearB7v160006Ev, symObjAddr: 0x35E8, symBinAddr: 0x1000063E4, symSize: 0x28 }
  - { offsetInCU: 0xCBAB, offset: 0xCBAB, size: 0x8, addend: 0x0, symName: __ZNSt3__116allocator_traitsINS_9allocatorI4LinkEEE10deallocateB7v160006ERS3_PS2_m, symObjAddr: 0x3610, symBinAddr: 0x10000640C, symSize: 0x34 }
  - { offsetInCU: 0xCBED, offset: 0xCBED, size: 0x8, addend: 0x0, symName: __ZNSt3__16vectorI4LinkNS_9allocatorIS1_EEE7__allocB7v160006Ev, symObjAddr: 0x3644, symBinAddr: 0x100006440, symSize: 0x28 }
  - { offsetInCU: 0xCC13, offset: 0xCC13, size: 0x8, addend: 0x0, symName: __ZNKSt3__16vectorI4LinkNS_9allocatorIS1_EEE8capacityB7v160006Ev, symObjAddr: 0x366C, symBinAddr: 0x100006468, symSize: 0x40 }
  - { offsetInCU: 0xCC39, offset: 0xCC39, size: 0x8, addend: 0x0, symName: __ZNKSt3__16vectorI4LinkNS_9allocatorIS1_EEE31__annotate_contiguous_containerB7v160006EPKvS6_S6_S6_, symObjAddr: 0x36AC, symBinAddr: 0x1000064A8, symSize: 0x20 }
  - { offsetInCU: 0xCC8F, offset: 0xCC8F, size: 0x8, addend: 0x0, symName: __ZNKSt3__16vectorI4LinkNS_9allocatorIS1_EEE4dataB7v160006Ev, symObjAddr: 0x36CC, symBinAddr: 0x1000064C8, symSize: 0x28 }
  - { offsetInCU: 0xCCB5, offset: 0xCCB5, size: 0x8, addend: 0x0, symName: __ZNKSt3__16vectorI4LinkNS_9allocatorIS1_EEE4sizeB7v160006Ev, symObjAddr: 0x36F4, symBinAddr: 0x1000064F0, symSize: 0x28 }
  - { offsetInCU: 0xCCDB, offset: 0xCCDB, size: 0x8, addend: 0x0, symName: __ZNSt3__16vectorI4LinkNS_9allocatorIS1_EEE22__base_destruct_at_endB7v160006EPS1_, symObjAddr: 0x3730, symBinAddr: 0x10000652C, symSize: 0x8C }
  - { offsetInCU: 0xCD1F, offset: 0xCD1F, size: 0x8, addend: 0x0, symName: __ZNSt3__116allocator_traitsINS_9allocatorI4LinkEEE7destroyB7v160006IS2_vEEvRS3_PT_, symObjAddr: 0x37BC, symBinAddr: 0x1000065B8, symSize: 0x2C }
  - { offsetInCU: 0xCD5C, offset: 0xCD5C, size: 0x8, addend: 0x0, symName: __ZNSt3__19allocatorI4LinkE7destroyB7v160006EPS1_, symObjAddr: 0x37E8, symBinAddr: 0x1000065E4, symSize: 0x28 }
  - { offsetInCU: 0xCD90, offset: 0xCD90, size: 0x8, addend: 0x0, symName: __ZNSt3__19allocatorI4LinkE10deallocateB7v160006EPS1_m, symObjAddr: 0x3810, symBinAddr: 0x10000660C, symSize: 0x44 }
  - { offsetInCU: 0xCDD2, offset: 0xCDD2, size: 0x8, addend: 0x0, symName: __ZNSt3__117__compressed_pairIP4LinkNS_9allocatorIS1_EEE6secondB7v160006Ev, symObjAddr: 0x3854, symBinAddr: 0x100006650, symSize: 0x24 }
  - { offsetInCU: 0xCDF8, offset: 0xCDF8, size: 0x8, addend: 0x0, symName: __ZNSt3__122__compressed_pair_elemINS_9allocatorI4LinkEELi1ELb1EE5__getB7v160006Ev, symObjAddr: 0x3878, symBinAddr: 0x100006674, symSize: 0x14 }
  - { offsetInCU: 0xCE1E, offset: 0xCE1E, size: 0x8, addend: 0x0, symName: __ZNKSt3__16vectorI4LinkNS_9allocatorIS1_EEE9__end_capB7v160006Ev, symObjAddr: 0x388C, symBinAddr: 0x100006688, symSize: 0x28 }
  - { offsetInCU: 0xCE44, offset: 0xCE44, size: 0x8, addend: 0x0, symName: __ZNKSt3__117__compressed_pairIP4LinkNS_9allocatorIS1_EEE5firstB7v160006Ev, symObjAddr: 0x38B4, symBinAddr: 0x1000066B0, symSize: 0x24 }
  - { offsetInCU: 0xCE6A, offset: 0xCE6A, size: 0x8, addend: 0x0, symName: __ZNKSt3__122__compressed_pair_elemIP4LinkLi0ELb0EE5__getB7v160006Ev, symObjAddr: 0x38D8, symBinAddr: 0x1000066D4, symSize: 0x14 }
  - { offsetInCU: 0xCE90, offset: 0xCE90, size: 0x8, addend: 0x0, symName: __ZNSt3__112basic_stringIcNS_11char_traitsIcEENS_9allocatorIcEEE13__move_assignB7v160006ERS5_NS_17integral_constantIbLb1EEE, symObjAddr: 0x38EC, symBinAddr: 0x1000066E8, symSize: 0xC8 }
  - { offsetInCU: 0xCED3, offset: 0xCED3, size: 0x8, addend: 0x0, symName: __ZNSt3__116allocator_traitsINS_9allocatorIcEEE10deallocateB7v160006ERS2_Pcm, symObjAddr: 0x39B4, symBinAddr: 0x1000067B0, symSize: 0x34 }
  - { offsetInCU: 0xCF15, offset: 0xCF15, size: 0x8, addend: 0x0, symName: __ZNSt3__112basic_stringIcNS_11char_traitsIcEENS_9allocatorIcEEE7__allocB7v160006Ev, symObjAddr: 0x39E8, symBinAddr: 0x1000067E4, symSize: 0x24 }
  - { offsetInCU: 0xCF3B, offset: 0xCF3B, size: 0x8, addend: 0x0, symName: __ZNSt3__112basic_stringIcNS_11char_traitsIcEENS_9allocatorIcEEE18__get_long_pointerB7v160006Ev, symObjAddr: 0x3A0C, symBinAddr: 0x100006808, symSize: 0x28 }
  - { offsetInCU: 0xCF61, offset: 0xCF61, size: 0x8, addend: 0x0, symName: __ZNKSt3__112basic_stringIcNS_11char_traitsIcEENS_9allocatorIcEEE14__get_long_capB7v160006Ev, symObjAddr: 0x3A34, symBinAddr: 0x100006830, symSize: 0x30 }
  - { offsetInCU: 0xCF87, offset: 0xCF87, size: 0x8, addend: 0x0, symName: __ZNSt3__112basic_stringIcNS_11char_traitsIcEENS_9allocatorIcEEE19__move_assign_allocB7v160006ERS5_, symObjAddr: 0x3A64, symBinAddr: 0x100006860, symSize: 0x2C }
  - { offsetInCU: 0xCFBC, offset: 0xCFBC, size: 0x8, addend: 0x0, symName: __ZNSt3__112basic_stringIcNS_11char_traitsIcEENS_9allocatorIcEEE16__set_short_sizeB7v160006Em, symObjAddr: 0x3A90, symBinAddr: 0x10000688C, symSize: 0x78 }
  - { offsetInCU: 0xCFF1, offset: 0xCFF1, size: 0x8, addend: 0x0, symName: __ZNSt3__111char_traitsIcE6assignERcRKc, symObjAddr: 0x3B08, symBinAddr: 0x100006904, symSize: 0x24 }
  - { offsetInCU: 0xD022, offset: 0xD022, size: 0x8, addend: 0x0, symName: __ZNSt3__112basic_stringIcNS_11char_traitsIcEENS_9allocatorIcEEE19__get_short_pointerB7v160006Ev, symObjAddr: 0x3B2C, symBinAddr: 0x100006928, symSize: 0x28 }
  - { offsetInCU: 0xD048, offset: 0xD048, size: 0x8, addend: 0x0, symName: __ZNSt3__19allocatorIcE10deallocateB7v160006EPcm, symObjAddr: 0x3B54, symBinAddr: 0x100006950, symSize: 0x40 }
  - { offsetInCU: 0xD08A, offset: 0xD08A, size: 0x8, addend: 0x0, symName: __ZNSt3__117__compressed_pairINS_12basic_stringIcNS_11char_traitsIcEENS_9allocatorIcEEE5__repES5_E6secondB7v160006Ev, symObjAddr: 0x3B94, symBinAddr: 0x100006990, symSize: 0x24 }
  - { offsetInCU: 0xD0B0, offset: 0xD0B0, size: 0x8, addend: 0x0, symName: __ZNSt3__122__compressed_pair_elemINS_9allocatorIcEELi1ELb1EE5__getB7v160006Ev, symObjAddr: 0x3BB8, symBinAddr: 0x1000069B4, symSize: 0x14 }
  - { offsetInCU: 0xD0D6, offset: 0xD0D6, size: 0x8, addend: 0x0, symName: __ZNSt3__112basic_stringIcNS_11char_traitsIcEENS_9allocatorIcEEE19__move_assign_allocB7v160006ERS5_NS_17integral_constantIbLb1EEE, symObjAddr: 0x3BCC, symBinAddr: 0x1000069C8, symSize: 0x38 }
  - { offsetInCU: 0xD117, offset: 0xD117, size: 0x8, addend: 0x0, symName: __ZNSt3__114pointer_traitsIPcE10pointer_toB7v160006ERc, symObjAddr: 0x3C04, symBinAddr: 0x100006A00, symSize: 0x14 }
  - { offsetInCU: 0xD13A, offset: 0xD13A, size: 0x8, addend: 0x0, symName: __ZNSt3__112basic_stringIcNS_11char_traitsIcEENS_9allocatorIcEEEC2B7v160006IDnEEPKc, symObjAddr: 0x3C18, symBinAddr: 0x100006A14, symSize: 0x60 }
  - { offsetInCU: 0xD178, offset: 0xD178, size: 0x8, addend: 0x0, symName: __ZNSt3__112basic_stringIcNS_11char_traitsIcEENS_9allocatorIcEEE13__get_pointerB7v160006Ev, symObjAddr: 0x3C78, symBinAddr: 0x100006A74, symSize: 0x54 }
  - { offsetInCU: 0xD19E, offset: 0xD19E, size: 0x8, addend: 0x0, symName: __ZNSt3__112basic_stringIcNS_11char_traitsIcEENS_9allocatorIcEEEC1B7v160006EOS5_, symObjAddr: 0x3CCC, symBinAddr: 0x100006AC8, symSize: 0x34 }
  - { offsetInCU: 0xD1D7, offset: 0xD1D7, size: 0x8, addend: 0x0, symName: __ZNSt3__112basic_stringIcNS_11char_traitsIcEENS_9allocatorIcEEEC2B7v160006EOS5_, symObjAddr: 0x3D00, symBinAddr: 0x100006AFC, symSize: 0x80 }
  - { offsetInCU: 0xD210, offset: 0xD210, size: 0x8, addend: 0x0, symName: __ZNSt3__112basic_stringIcNS_11char_traitsIcEENS_9allocatorIcEEE6appendB7v160006ERKS5_, symObjAddr: 0x3D94, symBinAddr: 0x100006B90, symSize: 0x4C }
  - { offsetInCU: 0xD263, offset: 0xD263, size: 0x8, addend: 0x0, symName: __ZNKSt3__113basic_ostreamIcNS_11char_traitsIcEEE6sentrycvbB7v160006Ev, symObjAddr: 0x3FCC, symBinAddr: 0x100006DC8, symSize: 0x1C }
  - { offsetInCU: 0xD289, offset: 0xD289, size: 0x8, addend: 0x0, symName: __ZNSt3__119ostreambuf_iteratorIcNS_11char_traitsIcEEEC1B7v160006ERNS_13basic_ostreamIcS2_EE, symObjAddr: 0x4228, symBinAddr: 0x100007024, symSize: 0x34 }
  - { offsetInCU: 0xD2C1, offset: 0xD2C1, size: 0x8, addend: 0x0, symName: __ZNKSt3__18ios_base5flagsB7v160006Ev, symObjAddr: 0x425C, symBinAddr: 0x100007058, symSize: 0x18 }
  - { offsetInCU: 0xD2E9, offset: 0xD2E9, size: 0x8, addend: 0x0, symName: __ZNKSt3__19basic_iosIcNS_11char_traitsIcEEE4fillB7v160006Ev, symObjAddr: 0x4274, symBinAddr: 0x100007070, symSize: 0x64 }
  - { offsetInCU: 0xD311, offset: 0xD311, size: 0x8, addend: 0x0, symName: __ZNKSt3__119ostreambuf_iteratorIcNS_11char_traitsIcEEE6failedB7v160006Ev, symObjAddr: 0x42D8, symBinAddr: 0x1000070D4, symSize: 0x24 }
  - { offsetInCU: 0xD337, offset: 0xD337, size: 0x8, addend: 0x0, symName: __ZNSt3__19basic_iosIcNS_11char_traitsIcEEE8setstateB7v160006Ej, symObjAddr: 0x42FC, symBinAddr: 0x1000070F8, symSize: 0x2C }
  - { offsetInCU: 0xD36C, offset: 0xD36C, size: 0x8, addend: 0x0, symName: __ZNKSt3__18ios_base5widthB7v160006Ev, symObjAddr: 0x4328, symBinAddr: 0x100007124, symSize: 0x18 }
  - { offsetInCU: 0xD394, offset: 0xD394, size: 0x8, addend: 0x0, symName: __ZNSt3__115basic_streambufIcNS_11char_traitsIcEEE5sputnB7v160006EPKcl, symObjAddr: 0x4340, symBinAddr: 0x10000713C, symSize: 0x3C }
  - { offsetInCU: 0xD3D6, offset: 0xD3D6, size: 0x8, addend: 0x0, symName: __ZNSt3__112basic_stringIcNS_11char_traitsIcEENS_9allocatorIcEEEC1B7v160006Emc, symObjAddr: 0x437C, symBinAddr: 0x100007178, symSize: 0x3C }
  - { offsetInCU: 0xD41E, offset: 0xD41E, size: 0x8, addend: 0x0, symName: __ZNSt3__18ios_base5widthB7v160006El, symObjAddr: 0x43B8, symBinAddr: 0x1000071B4, symSize: 0x2C }
  - { offsetInCU: 0xD464, offset: 0xD464, size: 0x8, addend: 0x0, symName: __ZNSt3__112basic_stringIcNS_11char_traitsIcEENS_9allocatorIcEEEC2B7v160006Emc, symObjAddr: 0x43E4, symBinAddr: 0x1000071E0, symSize: 0x54 }
  - { offsetInCU: 0xD4AC, offset: 0xD4AC, size: 0x8, addend: 0x0, symName: __ZNSt3__119ostreambuf_iteratorIcNS_11char_traitsIcEEEC2B7v160006ERNS_13basic_ostreamIcS2_EE, symObjAddr: 0x4438, symBinAddr: 0x100007234, symSize: 0x54 }
  - { offsetInCU: 0xD4E4, offset: 0xD4E4, size: 0x8, addend: 0x0, symName: __ZNKSt3__19basic_iosIcNS_11char_traitsIcEEE5rdbufB7v160006Ev, symObjAddr: 0x448C, symBinAddr: 0x100007288, symSize: 0x24 }
  - { offsetInCU: 0xD50C, offset: 0xD50C, size: 0x8, addend: 0x0, symName: __ZNKSt3__18ios_base5rdbufB7v160006Ev, symObjAddr: 0x44B0, symBinAddr: 0x1000072AC, symSize: 0x18 }
  - { offsetInCU: 0xD532, offset: 0xD532, size: 0x8, addend: 0x0, symName: __ZNSt3__111char_traitsIcE11eq_int_typeEii, symObjAddr: 0x44C8, symBinAddr: 0x1000072C4, symSize: 0x28 }
  - { offsetInCU: 0xD563, offset: 0xD563, size: 0x8, addend: 0x0, symName: __ZNSt3__111char_traitsIcE3eofEv, symObjAddr: 0x44F0, symBinAddr: 0x1000072EC, symSize: 0x8 }
  - { offsetInCU: 0xD577, offset: 0xD577, size: 0x8, addend: 0x0, symName: __ZNKSt3__19basic_iosIcNS_11char_traitsIcEEE5widenB7v160006Ec, symObjAddr: 0x44F8, symBinAddr: 0x1000072F4, symSize: 0x84 }
  - { offsetInCU: 0xD5E5, offset: 0xD5E5, size: 0x8, addend: 0x0, symName: __ZNKSt3__15ctypeIcE5widenB7v160006Ec, symObjAddr: 0x45A8, symBinAddr: 0x1000073A4, symSize: 0x38 }
  - { offsetInCU: 0xD61A, offset: 0xD61A, size: 0x8, addend: 0x0, symName: __ZNSt3__18ios_base8setstateB7v160006Ej, symObjAddr: 0x45E0, symBinAddr: 0x1000073DC, symSize: 0x34 }
  - { offsetInCU: 0xD651, offset: 0xD651, size: 0x8, addend: 0x0, symName: __ZNSt3__16vectorI4LinkNS_9allocatorIS1_EEE11__make_iterB7v160006EPS1_, symObjAddr: 0x4614, symBinAddr: 0x100007410, symSize: 0x34 }
  - { offsetInCU: 0xD686, offset: 0xD686, size: 0x8, addend: 0x0, symName: __ZNSt3__111__wrap_iterIP4LinkEC1B7v160006EPKvS2_, symObjAddr: 0x4648, symBinAddr: 0x100007444, symSize: 0x3C }
  - { offsetInCU: 0xD6CC, offset: 0xD6CC, size: 0x8, addend: 0x0, symName: __ZNSt3__111__wrap_iterIP4LinkEC2B7v160006EPKvS2_, symObjAddr: 0x4684, symBinAddr: 0x100007480, symSize: 0x24 }
  - { offsetInCU: 0x52, offset: 0xD9AE, size: 0x8, addend: 0x0, symName: __ZL14TagsRecognized, symObjAddr: 0x3FDD0, symBinAddr: 0x1000148D0, symSize: 0x0 }
  - { offsetInCU: 0x5614, offset: 0x12F70, size: 0x8, addend: 0x0, symName: __ZNSt3__17advanceB7v160006IPNS_12basic_stringIcNS_11char_traitsIcEENS_9allocatorIcEEEEmmvEEvRT_T0_, symObjAddr: 0x5128, symBinAddr: 0x10000B2B4, symSize: 0x50 }
  - { offsetInCU: 0x647A, offset: 0x13DD6, size: 0x8, addend: 0x0, symName: __ZNSt3__119__debug_db_insert_cB7v160006INS_6vectorI4LinkNS_9allocatorIS2_EEEEEEvPT_, symObjAddr: 0x1F00, symBinAddr: 0x1000099C0, symSize: 0x10 }
  - { offsetInCU: 0x64AB, offset: 0x13E07, size: 0x8, addend: 0x0, symName: __ZNSt3__13maxB7v160006ImEERKT_S3_S3_, symObjAddr: 0x3DFC, symBinAddr: 0x10000A050, symSize: 0x2C }
  - { offsetInCU: 0x64EE, offset: 0x13E4A, size: 0x8, addend: 0x0, symName: __ZNSt3__13maxB7v160006ImNS_6__lessImmEEEERKT_S5_S5_T0_, symObjAddr: 0x3EC4, symBinAddr: 0x10000A118, symSize: 0x54 }
  - { offsetInCU: 0x6548, offset: 0x13EA4, size: 0x8, addend: 0x0, symName: __ZNSt3__119__allocate_at_leastB7v160006INS_9allocatorI4LinkEEEENS_19__allocation_resultINS_16allocator_traitsIT_E7pointerEEERS6_m, symObjAddr: 0x4034, symBinAddr: 0x10000A288, symSize: 0x40 }
  - { offsetInCU: 0x658B, offset: 0x13EE7, size: 0x8, addend: 0x0, symName: __ZNSt3__142__uninitialized_allocator_move_if_noexceptB7v160006INS_9allocatorI4LinkEENS_16reverse_iteratorIPS2_EES6_S6_EET2_RT_T0_T1_S7_, symObjAddr: 0x41EC, symBinAddr: 0x10000A440, symSize: 0x12C }
  - { offsetInCU: 0x662B, offset: 0x13F87, size: 0x8, addend: 0x0, symName: __ZNSt3__14swapB7v160006IP4LinkEENS_9enable_ifIXaasr21is_move_constructibleIT_EE5valuesr18is_move_assignableIS4_EE5valueEvE4typeERS4_S7_, symObjAddr: 0x4364, symBinAddr: 0x10000A5B8, symSize: 0x3C }
  - { offsetInCU: 0x667C, offset: 0x13FD8, size: 0x8, addend: 0x0, symName: __ZNSt3__125__debug_db_invalidate_allB7v160006INS_6vectorI4LinkNS_9allocatorIS2_EEEEEEvPT_, symObjAddr: 0x4468, symBinAddr: 0x10000A6BC, symSize: 0x10 }
  - { offsetInCU: 0x66AD, offset: 0x14009, size: 0x8, addend: 0x0, symName: __ZNSt3__122__make_exception_guardB7v160006INS_29_AllocatorDestroyRangeReverseINS_9allocatorI4LinkEENS_16reverse_iteratorIPS3_EEEEEENS_28__exception_guard_exceptionsIT_EESA_, symObjAddr: 0x4478, symBinAddr: 0x10000A6CC, symSize: 0x4C }
  - { offsetInCU: 0x66E3, offset: 0x1403F, size: 0x8, addend: 0x0, symName: __ZNSt3__1neB7v160006IP4LinkS2_EEbRKNS_16reverse_iteratorIT_EERKNS3_IT0_EE, symObjAddr: 0x4508, symBinAddr: 0x10000A75C, symSize: 0x48 }
  - { offsetInCU: 0x672F, offset: 0x1408B, size: 0x8, addend: 0x0, symName: __ZNSt3__112__to_addressB7v160006INS_16reverse_iteratorIP4LinkEEvEENS_5decayIDTclsr19__to_address_helperIT_EE6__callclsr3stdE7declvalIRKS6_EEEEE4typeES8_, symObjAddr: 0x4584, symBinAddr: 0x10000A7D8, symSize: 0x24 }
  - { offsetInCU: 0x6765, offset: 0x140C1, size: 0x8, addend: 0x0, symName: __ZNSt3__115__debug_db_swapB7v160006INS_6vectorINS_12basic_stringIcNS_11char_traitsIcEENS_9allocatorIcEEEENS5_IS7_EEEEEEvPT_SB_, symObjAddr: 0x4958, symBinAddr: 0x10000AAE4, symSize: 0x14 }
  - { offsetInCU: 0x67CD, offset: 0x14129, size: 0x8, addend: 0x0, symName: __ZNSt3__119__allocator_destroyB7v160006INS_9allocatorI4LinkEENS_16reverse_iteratorINS4_IPS2_EEEES7_EEvRT_T0_T1_, symObjAddr: 0x4ACC, symBinAddr: 0x10000AC58, symSize: 0x70 }
  - { offsetInCU: 0x6832, offset: 0x1418E, size: 0x8, addend: 0x0, symName: __ZNSt3__1neB7v160006INS_16reverse_iteratorIP4LinkEES4_EEbRKNS1_IT_EERKNS1_IT0_EE, symObjAddr: 0x4B78, symBinAddr: 0x10000AD04, symSize: 0x60 }
  - { offsetInCU: 0x687E, offset: 0x141DA, size: 0x8, addend: 0x0, symName: __ZNSt3__112__to_addressB7v160006INS_16reverse_iteratorINS1_IP4LinkEEEEvEENS_5decayIDTclsr19__to_address_helperIT_EE6__callclsr3stdE7declvalIRKS7_EEEEE4typeES9_, symObjAddr: 0x4BD8, symBinAddr: 0x10000AD64, symSize: 0x24 }
  - { offsetInCU: 0x68DD, offset: 0x14239, size: 0x8, addend: 0x0, symName: __ZNSt3__18distanceB7v160006IPNS_12basic_stringIcNS_11char_traitsIcEENS_9allocatorIcEEEEEENS_15iterator_traitsIT_E15difference_typeES9_S9_, symObjAddr: 0x50FC, symBinAddr: 0x10000B288, symSize: 0x2C }
  - { offsetInCU: 0x6920, offset: 0x1427C, size: 0x8, addend: 0x0, symName: __ZNSt3__14copyB7v160006IPNS_12basic_stringIcNS_11char_traitsIcEENS_9allocatorIcEEEES7_EET0_T_S9_S8_, symObjAddr: 0x5178, symBinAddr: 0x10000B304, symSize: 0x40 }
  - { offsetInCU: 0x697A, offset: 0x142D6, size: 0x8, addend: 0x0, symName: __ZNSt3__125__debug_db_invalidate_allB7v160006INS_6vectorINS_12basic_stringIcNS_11char_traitsIcEENS_9allocatorIcEEEENS5_IS7_EEEEEEvPT_, symObjAddr: 0x5358, symBinAddr: 0x10000B4E4, symSize: 0x10 }
  - { offsetInCU: 0x69AB, offset: 0x14307, size: 0x8, addend: 0x0, symName: __ZNSt3__110__distanceB7v160006IPNS_12basic_stringIcNS_11char_traitsIcEENS_9allocatorIcEEEEEENS_15iterator_traitsIT_E15difference_typeES9_S9_NS_26random_access_iterator_tagE, symObjAddr: 0x5368, symBinAddr: 0x10000B4F4, symSize: 0x28 }
  - { offsetInCU: 0x69F9, offset: 0x14355, size: 0x8, addend: 0x0, symName: __ZNSt3__121__convert_to_integralB7v160006Em, symObjAddr: 0x5390, symBinAddr: 0x10000B51C, symSize: 0x14 }
  - { offsetInCU: 0x6A25, offset: 0x14381, size: 0x8, addend: 0x0, symName: __ZNSt3__19__advanceB7v160006IPNS_12basic_stringIcNS_11char_traitsIcEENS_9allocatorIcEEEEEEvRT_NS_15iterator_traitsIS8_E15difference_typeENS_26random_access_iterator_tagE, symObjAddr: 0x53A4, symBinAddr: 0x10000B530, symSize: 0x30 }
  - { offsetInCU: 0x6A6F, offset: 0x143CB, size: 0x8, addend: 0x0, symName: __ZNSt3__16__copyB7v160006INS_17_ClassicAlgPolicyEPNS_12basic_stringIcNS_11char_traitsIcEENS_9allocatorIcEEEES8_S8_EENS_4pairIT0_T2_EESA_T1_SB_, symObjAddr: 0x53D4, symBinAddr: 0x10000B560, symSize: 0x44 }
  - { offsetInCU: 0x6ADB, offset: 0x14437, size: 0x8, addend: 0x0, symName: __ZNSt3__123__dispatch_copy_or_moveB7v160006INS_17_ClassicAlgPolicyENS_11__copy_loopIS1_EENS_14__copy_trivialEPNS_12basic_stringIcNS_11char_traitsIcEENS_9allocatorIcEEEESB_SB_EENS_4pairIT2_T4_EESD_T3_SE_, symObjAddr: 0x5418, symBinAddr: 0x10000B5A4, symSize: 0x44 }
  - { offsetInCU: 0x6B59, offset: 0x144B5, size: 0x8, addend: 0x0, symName: __ZNSt3__121__unwrap_and_dispatchB7v160006INS_10__overloadINS_11__copy_loopINS_17_ClassicAlgPolicyEEENS_14__copy_trivialEEEPNS_12basic_stringIcNS_11char_traitsIcEENS_9allocatorIcEEEESD_SD_Li0EEENS_4pairIT0_T2_EESF_T1_SG_, symObjAddr: 0x545C, symBinAddr: 0x10000B5E8, symSize: 0xB4 }
  - { offsetInCU: 0x6BE7, offset: 0x14543, size: 0x8, addend: 0x0, symName: __ZNSt3__114__unwrap_rangeB7v160006IPNS_12basic_stringIcNS_11char_traitsIcEENS_9allocatorIcEEEES7_EENS_4pairIT0_S9_EET_SB_, symObjAddr: 0x5510, symBinAddr: 0x10000B69C, symSize: 0x60 }
  - { offsetInCU: 0x6D63, offset: 0x146BF, size: 0x8, addend: 0x0, symName: __ZNSt3__113__unwrap_iterB7v160006IPNS_12basic_stringIcNS_11char_traitsIcEENS_9allocatorIcEEEENS_18__unwrap_iter_implIS7_Lb1EEELi0EEEDTclsrT0_8__unwrapclsr3stdE7declvalIT_EEEESB_, symObjAddr: 0x55F8, symBinAddr: 0x10000B784, symSize: 0x24 }
  - { offsetInCU: 0x6DA7, offset: 0x14703, size: 0x8, addend: 0x0, symName: __ZNSt3__19make_pairB7v160006IPNS_12basic_stringIcNS_11char_traitsIcEENS_9allocatorIcEEEES7_EENS_4pairINS_18__unwrap_ref_decayIT_E4typeENS9_IT0_E4typeEEEOSA_OSD_, symObjAddr: 0x561C, symBinAddr: 0x10000B7A8, symSize: 0x38 }
  - { offsetInCU: 0x6DF6, offset: 0x14752, size: 0x8, addend: 0x0, symName: __ZNSt3__114__rewrap_rangeB7v160006IPNS_12basic_stringIcNS_11char_traitsIcEENS_9allocatorIcEEEES7_EET_S8_T0_, symObjAddr: 0x5654, symBinAddr: 0x10000B7E0, symSize: 0x2C }
  - { offsetInCU: 0x6E42, offset: 0x1479E, size: 0x8, addend: 0x0, symName: __ZNSt3__113__rewrap_iterB7v160006IPNS_12basic_stringIcNS_11char_traitsIcEENS_9allocatorIcEEEES7_NS_18__unwrap_iter_implIS7_Lb1EEEEET_SA_T0_, symObjAddr: 0x5680, symBinAddr: 0x10000B80C, symSize: 0x3C }
  - { offsetInCU: 0x6EEA, offset: 0x14846, size: 0x8, addend: 0x0, symName: __ZNSt3__142__uninitialized_allocator_move_if_noexceptB7v160006INS_9allocatorINS_12basic_stringIcNS_11char_traitsIcEENS1_IcEEEEEENS_16reverse_iteratorIPS6_EESA_SA_EET2_RT_T0_T1_SB_, symObjAddr: 0x6290, symBinAddr: 0x10000C224, symSize: 0x11C }
  - { offsetInCU: 0x6F8A, offset: 0x148E6, size: 0x8, addend: 0x0, symName: __ZNSt3__14swapB7v160006IPNS_12basic_stringIcNS_11char_traitsIcEENS_9allocatorIcEEEEEENS_9enable_ifIXaasr21is_move_constructibleIT_EE5valuesr18is_move_assignableIS9_EE5valueEvE4typeERS9_SC_, symObjAddr: 0x63AC, symBinAddr: 0x10000C340, symSize: 0x3C }
  - { offsetInCU: 0x6FDB, offset: 0x14937, size: 0x8, addend: 0x0, symName: __ZNSt3__122__make_exception_guardB7v160006INS_29_AllocatorDestroyRangeReverseINS_9allocatorINS_12basic_stringIcNS_11char_traitsIcEENS2_IcEEEEEENS_16reverse_iteratorIPS7_EEEEEENS_28__exception_guard_exceptionsIT_EESE_, symObjAddr: 0x63E8, symBinAddr: 0x10000C37C, symSize: 0x4C }
  - { offsetInCU: 0x7011, offset: 0x1496D, size: 0x8, addend: 0x0, symName: __ZNSt3__119__allocator_destroyB7v160006INS_9allocatorINS_12basic_stringIcNS_11char_traitsIcEENS1_IcEEEEEENS_16reverse_iteratorINS8_IPS6_EEEESB_EEvRT_T0_T1_, symObjAddr: 0x66C4, symBinAddr: 0x10000C658, symSize: 0x70 }
  - { offsetInCU: 0x7076, offset: 0x149D2, size: 0x8, addend: 0x0, symName: __ZNSt3__1neB7v160006INS_16reverse_iteratorIPNS_12basic_stringIcNS_11char_traitsIcEENS_9allocatorIcEEEEEES9_EEbRKNS1_IT_EERKNS1_IT0_EE, symObjAddr: 0x6770, symBinAddr: 0x10000C704, symSize: 0x60 }
  - { offsetInCU: 0x70C2, offset: 0x14A1E, size: 0x8, addend: 0x0, symName: __ZNSt3__112__to_addressB7v160006INS_16reverse_iteratorINS1_IPNS_12basic_stringIcNS_11char_traitsIcEENS_9allocatorIcEEEEEEEEvEENS_5decayIDTclsr19__to_address_helperIT_EE6__callclsr3stdE7declvalIRKSC_EEEEE4typeESE_, symObjAddr: 0x67D0, symBinAddr: 0x10000C764, symSize: 0x24 }
  - { offsetInCU: 0x7638, offset: 0x14F94, size: 0x8, addend: 0x0, symName: __ZNSt3__16vectorI4LinkNS_9allocatorIS1_EEE26__swap_out_circular_bufferERNS_14__split_bufferIS1_RS3_EE, symObjAddr: 0x3C3C, symBinAddr: 0x100009E90, symSize: 0x118 }
  - { offsetInCU: 0x76CB, offset: 0x15027, size: 0x8, addend: 0x0, symName: __ZNSt3__16vectorINS_12basic_stringIcNS_11char_traitsIcEENS_9allocatorIcEEEENS4_IS6_EEE26__swap_out_circular_bufferERNS_14__split_bufferIS6_RS7_EE, symObjAddr: 0x5F14, symBinAddr: 0x10000BEA8, symSize: 0x118 }
  - { offsetInCU: 0x8D97, offset: 0x166F3, size: 0x8, addend: 0x0, symName: __Z7isspacei, symObjAddr: 0x1150, symBinAddr: 0x1000092FC, symSize: 0x28 }
  - { offsetInCU: 0x95B7, offset: 0x16F13, size: 0x8, addend: 0x0, symName: __ZN10HtmlParserC2EPKcm, symObjAddr: 0x3C, symBinAddr: 0x100008214, symSize: 0x1070 }
  - { offsetInCU: 0x97A1, offset: 0x170FD, size: 0x8, addend: 0x0, symName: __ZNSt3__16vectorINS_12basic_stringIcNS_11char_traitsIcEENS_9allocatorIcEEEENS4_IS6_EEEC1B7v160006Ev, symObjAddr: 0x10CC, symBinAddr: 0x1000092A4, symSize: 0x2C }
  - { offsetInCU: 0x97CB, offset: 0x17127, size: 0x8, addend: 0x0, symName: __ZNSt3__16vectorI4LinkNS_9allocatorIS1_EEEC1B7v160006Ev, symObjAddr: 0x10F8, symBinAddr: 0x1000092D0, symSize: 0x2C }
  - { offsetInCU: 0x97F5, offset: 0x17151, size: 0x8, addend: 0x0, symName: __ZNKSt3__112basic_stringIcNS_11char_traitsIcEENS_9allocatorIcEEE5emptyB7v160006Ev, symObjAddr: 0x1178, symBinAddr: 0x100009324, symSize: 0x30 }
  - { offsetInCU: 0x981B, offset: 0x17177, size: 0x8, addend: 0x0, symName: __ZN4LinkC1ENSt3__112basic_stringIcNS0_11char_traitsIcEENS0_9allocatorIcEEEE, symObjAddr: 0x11A8, symBinAddr: 0x100009354, symSize: 0x34 }
  - { offsetInCU: 0x9854, offset: 0x171B0, size: 0x8, addend: 0x0, symName: __ZNSt3__16vectorI4LinkNS_9allocatorIS1_EEE9push_backB7v160006ERKS1_, symObjAddr: 0x11DC, symBinAddr: 0x100009388, symSize: 0x6C }
  - { offsetInCU: 0x988B, offset: 0x171E7, size: 0x8, addend: 0x0, symName: __ZNSt3__16vectorI4LinkNS_9allocatorIS1_EEE4backB7v160006Ev, symObjAddr: 0x1248, symBinAddr: 0x1000093F4, symSize: 0x1C }
  - { offsetInCU: 0x98B1, offset: 0x1720D, size: 0x8, addend: 0x0, symName: __ZNSt3__16vectorINS_12basic_stringIcNS_11char_traitsIcEENS_9allocatorIcEEEENS4_IS6_EEEaSB7v160006ERKS8_, symObjAddr: 0x1264, symBinAddr: 0x100009410, symSize: 0x68 }
  - { offsetInCU: 0x98E8, offset: 0x17244, size: 0x8, addend: 0x0, symName: __ZNSt3__16vectorINS_12basic_stringIcNS_11char_traitsIcEENS_9allocatorIcEEEENS4_IS6_EEE5clearB7v160006Ev, symObjAddr: 0x12F8, symBinAddr: 0x100009478, symSize: 0x4C }
  - { offsetInCU: 0x9922, offset: 0x1727E, size: 0x8, addend: 0x0, symName: __ZNSt3__16vectorI4LinkNS_9allocatorIS1_EEE12emplace_backIJRNS_12basic_stringIcNS_11char_traitsIcEENS2_IcEEEEEEEvDpOT_, symObjAddr: 0x1378, symBinAddr: 0x1000094C4, symSize: 0x6C }
  - { offsetInCU: 0x9964, offset: 0x172C0, size: 0x8, addend: 0x0, symName: __ZNSt3__112basic_stringIcNS_11char_traitsIcEENS_9allocatorIcEEEC1B7v160006EPKcm, symObjAddr: 0x13E4, symBinAddr: 0x100009530, symSize: 0x3C }
  - { offsetInCU: 0x99AC, offset: 0x17308, size: 0x8, addend: 0x0, symName: __ZNKSt3__16vectorINS_12basic_stringIcNS_11char_traitsIcEENS_9allocatorIcEEEENS4_IS6_EEE5emptyB7v160006Ev, symObjAddr: 0x1420, symBinAddr: 0x10000956C, symSize: 0x28 }
  - { offsetInCU: 0x99D2, offset: 0x1732E, size: 0x8, addend: 0x0, symName: __ZNSt3__16vectorINS_12basic_stringIcNS_11char_traitsIcEENS_9allocatorIcEEEENS4_IS6_EEE4backB7v160006Ev, symObjAddr: 0x1448, symBinAddr: 0x100009594, symSize: 0x1C }
  - { offsetInCU: 0x99F8, offset: 0x17354, size: 0x8, addend: 0x0, symName: __ZNSt3__112basic_stringIcNS_11char_traitsIcEENS_9allocatorIcEEEpLB7v160006ERKS5_, symObjAddr: 0x1464, symBinAddr: 0x1000095B0, symSize: 0x2C }
  - { offsetInCU: 0x9A2D, offset: 0x17389, size: 0x8, addend: 0x0, symName: __ZNSt3__16vectorINS_12basic_stringIcNS_11char_traitsIcEENS_9allocatorIcEEEENS4_IS6_EEE12emplace_backIJRKS6_EEEvDpOT_, symObjAddr: 0x1490, symBinAddr: 0x1000095DC, symSize: 0x6C }
  - { offsetInCU: 0x9A79, offset: 0x173D5, size: 0x8, addend: 0x0, symName: __ZNSt3__16vectorINS_12basic_stringIcNS_11char_traitsIcEENS_9allocatorIcEEEENS4_IS6_EEE12emplace_backIJRPKclEEEvDpOT_, symObjAddr: 0x14FC, symBinAddr: 0x100009648, symSize: 0x78 }
  - { offsetInCU: 0x9ACF, offset: 0x1742B, size: 0x8, addend: 0x0, symName: __ZN10HtmlParserC1EPKcm, symObjAddr: 0x15CC, symBinAddr: 0x1000096C0, symSize: 0x3C }
  - { offsetInCU: 0x9B17, offset: 0x17473, size: 0x8, addend: 0x0, symName: __Z8__istypeim, symObjAddr: 0x1634, symBinAddr: 0x1000096FC, symSize: 0x8C }
  - { offsetInCU: 0x9B51, offset: 0x174AD, size: 0x8, addend: 0x0, symName: __Z7isasciii, symObjAddr: 0x16C0, symBinAddr: 0x100009788, symSize: 0x24 }
  - { offsetInCU: 0x9B7D, offset: 0x174D9, size: 0x8, addend: 0x0, symName: __ZN4LinkC2ENSt3__112basic_stringIcNS0_11char_traitsIcEENS0_9allocatorIcEEEE, symObjAddr: 0x16E4, symBinAddr: 0x1000097AC, symSize: 0x40 }
  - { offsetInCU: 0x9BB6, offset: 0x17512, size: 0x8, addend: 0x0, symName: __ZNSt3__16vectorINS_12basic_stringIcNS_11char_traitsIcEENS_9allocatorIcEEEENS4_IS6_EEEC2B7v160006Ev, symObjAddr: 0x175C, symBinAddr: 0x1000097EC, symSize: 0x58 }
  - { offsetInCU: 0x9BEA, offset: 0x17546, size: 0x8, addend: 0x0, symName: __ZNSt3__117__compressed_pairIPNS_12basic_stringIcNS_11char_traitsIcEENS_9allocatorIcEEEENS4_IS6_EEEC1B7v160006IDnNS_18__default_init_tagEEEOT_OT0_, symObjAddr: 0x17B4, symBinAddr: 0x100009844, symSize: 0x3C }
  - { offsetInCU: 0x9C42, offset: 0x1759E, size: 0x8, addend: 0x0, symName: __ZNSt3__117__compressed_pairIPNS_12basic_stringIcNS_11char_traitsIcEENS_9allocatorIcEEEENS4_IS6_EEEC2B7v160006IDnNS_18__default_init_tagEEEOT_OT0_, symObjAddr: 0x180C, symBinAddr: 0x100009880, symSize: 0x40 }
  - { offsetInCU: 0x9C9A, offset: 0x175F6, size: 0x8, addend: 0x0, symName: __ZNSt3__122__compressed_pair_elemINS_9allocatorINS_12basic_stringIcNS_11char_traitsIcEENS1_IcEEEEEELi1ELb1EEC2B7v160006ENS_18__default_init_tagE, symObjAddr: 0x1868, symBinAddr: 0x1000098C0, symSize: 0x2C }
  - { offsetInCU: 0x9CCF, offset: 0x1762B, size: 0x8, addend: 0x0, symName: __ZNSt3__19allocatorINS_12basic_stringIcNS_11char_traitsIcEENS0_IcEEEEEC2B7v160006Ev, symObjAddr: 0x1894, symBinAddr: 0x1000098EC, symSize: 0x2C }
  - { offsetInCU: 0x9CFA, offset: 0x17656, size: 0x8, addend: 0x0, symName: __ZNSt3__116__non_trivial_ifILb1ENS_9allocatorINS_12basic_stringIcNS_11char_traitsIcEENS1_IcEEEEEEEC2B7v160006Ev, symObjAddr: 0x18C0, symBinAddr: 0x100009918, symSize: 0x14 }
  - { offsetInCU: 0x9D23, offset: 0x1767F, size: 0x8, addend: 0x0, symName: __ZNSt3__16vectorI4LinkNS_9allocatorIS1_EEEC2B7v160006Ev, symObjAddr: 0x1E6C, symBinAddr: 0x10000992C, symSize: 0x58 }
  - { offsetInCU: 0x9D4D, offset: 0x176A9, size: 0x8, addend: 0x0, symName: __ZNSt3__117__compressed_pairIP4LinkNS_9allocatorIS1_EEEC1B7v160006IDnNS_18__default_init_tagEEEOT_OT0_, symObjAddr: 0x1EC4, symBinAddr: 0x100009984, symSize: 0x3C }
  - { offsetInCU: 0x9DA5, offset: 0x17701, size: 0x8, addend: 0x0, symName: __ZNSt3__117__compressed_pairIP4LinkNS_9allocatorIS1_EEEC2B7v160006IDnNS_18__default_init_tagEEEOT_OT0_, symObjAddr: 0x1F10, symBinAddr: 0x1000099D0, symSize: 0x40 }
  - { offsetInCU: 0x9DFE, offset: 0x1775A, size: 0x8, addend: 0x0, symName: __ZNSt3__122__compressed_pair_elemIP4LinkLi0ELb0EEC2B7v160006IDnvEEOT_, symObjAddr: 0x1F50, symBinAddr: 0x100009A10, symSize: 0x1C }
  - { offsetInCU: 0x9E3F, offset: 0x1779B, size: 0x8, addend: 0x0, symName: __ZNSt3__122__compressed_pair_elemINS_9allocatorI4LinkEELi1ELb1EEC2B7v160006ENS_18__default_init_tagE, symObjAddr: 0x1F6C, symBinAddr: 0x100009A2C, symSize: 0x2C }
  - { offsetInCU: 0x9E74, offset: 0x177D0, size: 0x8, addend: 0x0, symName: __ZNSt3__19allocatorI4LinkEC2B7v160006Ev, symObjAddr: 0x1F98, symBinAddr: 0x100009A58, symSize: 0x2C }
  - { offsetInCU: 0x9E9F, offset: 0x177FB, size: 0x8, addend: 0x0, symName: __ZNSt3__116__non_trivial_ifILb1ENS_9allocatorI4LinkEEEC2B7v160006Ev, symObjAddr: 0x1FC4, symBinAddr: 0x100009A84, symSize: 0x14 }
  - { offsetInCU: 0x9EC8, offset: 0x17824, size: 0x8, addend: 0x0, symName: __ZNSt3__16vectorI4LinkNS_9allocatorIS1_EEE9__end_capB7v160006Ev, symObjAddr: 0x27E8, symBinAddr: 0x100009A98, symSize: 0x28 }
  - { offsetInCU: 0x9EEE, offset: 0x1784A, size: 0x8, addend: 0x0, symName: __ZNSt3__16vectorI4LinkNS_9allocatorIS1_EEE22__construct_one_at_endB7v160006IJRKS1_EEEvDpOT_, symObjAddr: 0x2810, symBinAddr: 0x100009AC0, symSize: 0x90 }
  - { offsetInCU: 0x9F3D, offset: 0x17899, size: 0x8, addend: 0x0, symName: __ZNSt3__16vectorI4LinkNS_9allocatorIS1_EEE21__push_back_slow_pathIRKS1_EEvOT_, symObjAddr: 0x28A0, symBinAddr: 0x100009B50, symSize: 0xD8 }
  - { offsetInCU: 0x9F9B, offset: 0x178F7, size: 0x8, addend: 0x0, symName: __ZNSt3__117__compressed_pairIP4LinkNS_9allocatorIS1_EEE5firstB7v160006Ev, symObjAddr: 0x2978, symBinAddr: 0x100009C28, symSize: 0x24 }
  - { offsetInCU: 0x9FC1, offset: 0x1791D, size: 0x8, addend: 0x0, symName: __ZNSt3__122__compressed_pair_elemIP4LinkLi0ELb0EE5__getB7v160006Ev, symObjAddr: 0x299C, symBinAddr: 0x100009C4C, symSize: 0x14 }
  - { offsetInCU: 0xA000, offset: 0x1795C, size: 0x8, addend: 0x0, symName: __ZNSt3__16vectorI4LinkNS_9allocatorIS1_EEE21_ConstructTransactionC1B7v160006ERS4_m, symObjAddr: 0x29B0, symBinAddr: 0x100009C60, symSize: 0x3C }
  - { offsetInCU: 0xA049, offset: 0x179A5, size: 0x8, addend: 0x0, symName: __ZNSt3__116allocator_traitsINS_9allocatorI4LinkEEE9constructB7v160006IS2_JRKS2_EvEEvRS3_PT_DpOT0_, symObjAddr: 0x29EC, symBinAddr: 0x100009C9C, symSize: 0x34 }
  - { offsetInCU: 0xA09F, offset: 0x179FB, size: 0x8, addend: 0x0, symName: __ZNSt3__16vectorI4LinkNS_9allocatorIS1_EEE21_ConstructTransactionD1B7v160006Ev, symObjAddr: 0x2A20, symBinAddr: 0x100009CD0, symSize: 0x2C }
  - { offsetInCU: 0xA0CA, offset: 0x17A26, size: 0x8, addend: 0x0, symName: __ZNSt3__16vectorI4LinkNS_9allocatorIS1_EEE21_ConstructTransactionC2B7v160006ERS4_m, symObjAddr: 0x2A4C, symBinAddr: 0x100009CFC, symSize: 0x4C }
  - { offsetInCU: 0xA111, offset: 0x17A6D, size: 0x8, addend: 0x0, symName: __ZNSt3__19allocatorI4LinkE9constructB7v160006IS1_JRKS1_EEEvPT_DpOT0_, symObjAddr: 0x2A98, symBinAddr: 0x100009D48, symSize: 0x30 }
  - { offsetInCU: 0xA19A, offset: 0x17AF6, size: 0x8, addend: 0x0, symName: __ZNSt3__16vectorI4LinkNS_9allocatorIS1_EEE21_ConstructTransactionD2B7v160006Ev, symObjAddr: 0x3B24, symBinAddr: 0x100009D78, symSize: 0x20 }
  - { offsetInCU: 0xA1C3, offset: 0x17B1F, size: 0x8, addend: 0x0, symName: __ZNKSt3__16vectorI4LinkNS_9allocatorIS1_EEE11__recommendB7v160006Em, symObjAddr: 0x3B44, symBinAddr: 0x100009D98, symSize: 0xB4 }
  - { offsetInCU: 0xA219, offset: 0x17B75, size: 0x8, addend: 0x0, symName: __ZNSt3__114__split_bufferI4LinkRNS_9allocatorIS1_EEEC1EmmS4_, symObjAddr: 0x3BF8, symBinAddr: 0x100009E4C, symSize: 0x44 }
  - { offsetInCU: 0xA26F, offset: 0x17BCB, size: 0x8, addend: 0x0, symName: __ZNSt3__114__split_bufferI4LinkRNS_9allocatorIS1_EEED1Ev, symObjAddr: 0x3D54, symBinAddr: 0x100009FA8, symSize: 0x2C }
  - { offsetInCU: 0xA29A, offset: 0x17BF6, size: 0x8, addend: 0x0, symName: __ZNKSt3__16vectorI4LinkNS_9allocatorIS1_EEE8max_sizeEv, symObjAddr: 0x3D80, symBinAddr: 0x100009FD4, symSize: 0x60 }
  - { offsetInCU: 0xA2C2, offset: 0x17C1E, size: 0x8, addend: 0x0, symName: __ZNKSt3__16vectorI4LinkNS_9allocatorIS1_EEE20__throw_length_errorB7v160006Ev, symObjAddr: 0x3DE0, symBinAddr: 0x10000A034, symSize: 0x1C }
  - { offsetInCU: 0xA2F3, offset: 0x17C4F, size: 0x8, addend: 0x0, symName: __ZNSt3__116allocator_traitsINS_9allocatorI4LinkEEE8max_sizeB7v160006IS3_vEEmRKS3_, symObjAddr: 0x3E28, symBinAddr: 0x10000A07C, symSize: 0x24 }
  - { offsetInCU: 0xA320, offset: 0x17C7C, size: 0x8, addend: 0x0, symName: __ZNKSt3__16vectorI4LinkNS_9allocatorIS1_EEE7__allocB7v160006Ev, symObjAddr: 0x3E4C, symBinAddr: 0x10000A0A0, symSize: 0x28 }
  - { offsetInCU: 0xA346, offset: 0x17CA2, size: 0x8, addend: 0x0, symName: __ZNKSt3__19allocatorI4LinkE8max_sizeB7v160006Ev, symObjAddr: 0x3E74, symBinAddr: 0x10000A0C8, symSize: 0x18 }
  - { offsetInCU: 0xA36C, offset: 0x17CC8, size: 0x8, addend: 0x0, symName: __ZNKSt3__117__compressed_pairIP4LinkNS_9allocatorIS1_EEE6secondB7v160006Ev, symObjAddr: 0x3E8C, symBinAddr: 0x10000A0E0, symSize: 0x24 }
  - { offsetInCU: 0xA392, offset: 0x17CEE, size: 0x8, addend: 0x0, symName: __ZNKSt3__122__compressed_pair_elemINS_9allocatorI4LinkEELi1ELb1EE5__getB7v160006Ev, symObjAddr: 0x3EB0, symBinAddr: 0x10000A104, symSize: 0x14 }
  - { offsetInCU: 0xA3B9, offset: 0x17D15, size: 0x8, addend: 0x0, symName: __ZNSt3__114__split_bufferI4LinkRNS_9allocatorIS1_EEEC2EmmS4_, symObjAddr: 0x3F18, symBinAddr: 0x10000A16C, symSize: 0xE0 }
  - { offsetInCU: 0xA42B, offset: 0x17D87, size: 0x8, addend: 0x0, symName: __ZNSt3__117__compressed_pairIP4LinkRNS_9allocatorIS1_EEEC1B7v160006IDnS5_EEOT_OT0_, symObjAddr: 0x3FF8, symBinAddr: 0x10000A24C, symSize: 0x3C }
  - { offsetInCU: 0xA483, offset: 0x17DDF, size: 0x8, addend: 0x0, symName: __ZNSt3__114__split_bufferI4LinkRNS_9allocatorIS1_EEE7__allocB7v160006Ev, symObjAddr: 0x4074, symBinAddr: 0x10000A2C8, symSize: 0x28 }
  - { offsetInCU: 0xA4A9, offset: 0x17E05, size: 0x8, addend: 0x0, symName: __ZNSt3__114__split_bufferI4LinkRNS_9allocatorIS1_EEE9__end_capB7v160006Ev, symObjAddr: 0x409C, symBinAddr: 0x10000A2F0, symSize: 0x28 }
  - { offsetInCU: 0xA4CF, offset: 0x17E2B, size: 0x8, addend: 0x0, symName: __ZNSt3__117__compressed_pairIP4LinkRNS_9allocatorIS1_EEEC2B7v160006IDnS5_EEOT_OT0_, symObjAddr: 0x40C4, symBinAddr: 0x10000A318, symSize: 0x48 }
  - { offsetInCU: 0xA528, offset: 0x17E84, size: 0x8, addend: 0x0, symName: __ZNSt3__122__compressed_pair_elemIRNS_9allocatorI4LinkEELi1ELb0EEC2B7v160006IS4_vEEOT_, symObjAddr: 0x410C, symBinAddr: 0x10000A360, symSize: 0x20 }
  - { offsetInCU: 0xA569, offset: 0x17EC5, size: 0x8, addend: 0x0, symName: __ZNSt3__19allocatorI4LinkE8allocateB7v160006Em, symObjAddr: 0x412C, symBinAddr: 0x10000A380, symSize: 0x5C }
  - { offsetInCU: 0xA59D, offset: 0x17EF9, size: 0x8, addend: 0x0, symName: __ZNSt3__117__compressed_pairIP4LinkRNS_9allocatorIS1_EEE6secondB7v160006Ev, symObjAddr: 0x4188, symBinAddr: 0x10000A3DC, symSize: 0x28 }
  - { offsetInCU: 0xA5C3, offset: 0x17F1F, size: 0x8, addend: 0x0, symName: __ZNSt3__122__compressed_pair_elemIRNS_9allocatorI4LinkEELi1ELb0EE5__getB7v160006Ev, symObjAddr: 0x41B0, symBinAddr: 0x10000A404, symSize: 0x18 }
  - { offsetInCU: 0xA5E9, offset: 0x17F45, size: 0x8, addend: 0x0, symName: __ZNSt3__117__compressed_pairIP4LinkRNS_9allocatorIS1_EEE5firstB7v160006Ev, symObjAddr: 0x41C8, symBinAddr: 0x10000A41C, symSize: 0x24 }
  - { offsetInCU: 0xA60F, offset: 0x17F6B, size: 0x8, addend: 0x0, symName: __ZNSt3__116reverse_iteratorIP4LinkEC1B7v160006ES2_, symObjAddr: 0x4318, symBinAddr: 0x10000A56C, symSize: 0x34 }
  - { offsetInCU: 0xA647, offset: 0x17FA3, size: 0x8, addend: 0x0, symName: __ZNKSt3__116reverse_iteratorIP4LinkE4baseB7v160006Ev, symObjAddr: 0x434C, symBinAddr: 0x10000A5A0, symSize: 0x18 }
  - { offsetInCU: 0xA66D, offset: 0x17FC9, size: 0x8, addend: 0x0, symName: __ZNKSt3__16vectorI4LinkNS_9allocatorIS1_EEE14__annotate_newB7v160006Em, symObjAddr: 0x43A0, symBinAddr: 0x10000A5F4, symSize: 0xC8 }
  - { offsetInCU: 0xA6A2, offset: 0x17FFE, size: 0x8, addend: 0x0, symName: __ZNSt3__129_AllocatorDestroyRangeReverseINS_9allocatorI4LinkEENS_16reverse_iteratorIPS2_EEEC1B7v160006ERS3_RS6_S9_, symObjAddr: 0x44C4, symBinAddr: 0x10000A718, symSize: 0x44 }
  - { offsetInCU: 0xA6FF, offset: 0x1805B, size: 0x8, addend: 0x0, symName: __ZNSt3__116allocator_traitsINS_9allocatorI4LinkEEE9constructB7v160006IS2_JS2_EvEEvRS3_PT_DpOT0_, symObjAddr: 0x4550, symBinAddr: 0x10000A7A4, symSize: 0x34 }
  - { offsetInCU: 0xA755, offset: 0x180B1, size: 0x8, addend: 0x0, symName: __ZNKSt3__116reverse_iteratorIP4LinkEdeB7v160006Ev, symObjAddr: 0x45A8, symBinAddr: 0x10000A7FC, symSize: 0x28 }
  - { offsetInCU: 0xA789, offset: 0x180E5, size: 0x8, addend: 0x0, symName: __ZNSt3__116reverse_iteratorIP4LinkEppB7v160006Ev, symObjAddr: 0x45D0, symBinAddr: 0x10000A824, symSize: 0x20 }
  - { offsetInCU: 0xA7AF, offset: 0x1810B, size: 0x8, addend: 0x0, symName: __ZNSt3__128__exception_guard_exceptionsINS_29_AllocatorDestroyRangeReverseINS_9allocatorI4LinkEENS_16reverse_iteratorIPS3_EEEEE10__completeB7v160006Ev, symObjAddr: 0x45F0, symBinAddr: 0x10000A844, symSize: 0x1C }
  - { offsetInCU: 0xA7D5, offset: 0x18131, size: 0x8, addend: 0x0, symName: __ZNSt3__128__exception_guard_exceptionsINS_29_AllocatorDestroyRangeReverseINS_9allocatorI4LinkEENS_16reverse_iteratorIPS3_EEEEED1B7v160006Ev, symObjAddr: 0x460C, symBinAddr: 0x10000A860, symSize: 0x2C }
  - { offsetInCU: 0xA7FF, offset: 0x1815B, size: 0x8, addend: 0x0, symName: __ZNSt3__128__exception_guard_exceptionsINS_29_AllocatorDestroyRangeReverseINS_9allocatorI4LinkEENS_16reverse_iteratorIPS3_EEEEEC1B7v160006ES8_, symObjAddr: 0x4638, symBinAddr: 0x10000A88C, symSize: 0x34 }
  - { offsetInCU: 0xA839, offset: 0x18195, size: 0x8, addend: 0x0, symName: __ZNSt3__128__exception_guard_exceptionsINS_29_AllocatorDestroyRangeReverseINS_9allocatorI4LinkEENS_16reverse_iteratorIPS3_EEEEEC2B7v160006ES8_, symObjAddr: 0x466C, symBinAddr: 0x10000A8C0, symSize: 0x30 }
  - { offsetInCU: 0xA872, offset: 0x181CE, size: 0x8, addend: 0x0, symName: __ZNSt3__129_AllocatorDestroyRangeReverseINS_9allocatorI4LinkEENS_16reverse_iteratorIPS2_EEEC2B7v160006ERS3_RS6_S9_, symObjAddr: 0x469C, symBinAddr: 0x10000A8F0, symSize: 0x38 }
  - { offsetInCU: 0xA8C8, offset: 0x18224, size: 0x8, addend: 0x0, symName: __ZNSt3__19allocatorI4LinkE9constructB7v160006IS1_JS1_EEEvPT_DpOT0_, symObjAddr: 0x46D4, symBinAddr: 0x10000A928, symSize: 0x30 }
  - { offsetInCU: 0xA91E, offset: 0x1827A, size: 0x8, addend: 0x0, symName: __ZN4LinkC1EOS_, symObjAddr: 0x4704, symBinAddr: 0x10000A958, symSize: 0x34 }
  - { offsetInCU: 0xA953, offset: 0x182AF, size: 0x8, addend: 0x0, symName: __ZN4LinkC2EOS_, symObjAddr: 0x4738, symBinAddr: 0x10000A98C, symSize: 0x48 }
  - { offsetInCU: 0xA989, offset: 0x182E5, size: 0x8, addend: 0x0, symName: __ZNSt3__16vectorINS_12basic_stringIcNS_11char_traitsIcEENS_9allocatorIcEEEENS4_IS6_EEEC1B7v160006EOS8_, symObjAddr: 0x47B4, symBinAddr: 0x10000A9D4, symSize: 0x34 }
  - { offsetInCU: 0xA9C4, offset: 0x18320, size: 0x8, addend: 0x0, symName: __ZNSt3__16vectorINS_12basic_stringIcNS_11char_traitsIcEENS_9allocatorIcEEEENS4_IS6_EEEC2B7v160006EOS8_, symObjAddr: 0x487C, symBinAddr: 0x10000AA08, symSize: 0xDC }
  - { offsetInCU: 0xAA04, offset: 0x18360, size: 0x8, addend: 0x0, symName: __ZNSt3__119__to_address_helperINS_16reverse_iteratorIP4LinkEEvE6__callB7v160006ERKS4_, symObjAddr: 0x496C, symBinAddr: 0x10000AAF8, symSize: 0x38 }
  - { offsetInCU: 0xAA26, offset: 0x18382, size: 0x8, addend: 0x0, symName: __ZNKSt3__116reverse_iteratorIP4LinkEptB7v160006Ev, symObjAddr: 0x49A4, symBinAddr: 0x10000AB30, symSize: 0x24 }
  - { offsetInCU: 0xAA4C, offset: 0x183A8, size: 0x8, addend: 0x0, symName: __ZNSt3__128__exception_guard_exceptionsINS_29_AllocatorDestroyRangeReverseINS_9allocatorI4LinkEENS_16reverse_iteratorIPS3_EEEEED2B7v160006Ev, symObjAddr: 0x49C8, symBinAddr: 0x10000AB54, symSize: 0x50 }
  - { offsetInCU: 0xAA76, offset: 0x183D2, size: 0x8, addend: 0x0, symName: __ZNKSt3__129_AllocatorDestroyRangeReverseINS_9allocatorI4LinkEENS_16reverse_iteratorIPS2_EEEclB7v160006Ev, symObjAddr: 0x4A18, symBinAddr: 0x10000ABA4, symSize: 0xB4 }
  - { offsetInCU: 0xAA9D, offset: 0x183F9, size: 0x8, addend: 0x0, symName: __ZNSt3__116reverse_iteratorINS0_IP4LinkEEEC1B7v160006ES3_, symObjAddr: 0x4B3C, symBinAddr: 0x10000ACC8, symSize: 0x3C }
  - { offsetInCU: 0xAAD5, offset: 0x18431, size: 0x8, addend: 0x0, symName: __ZNSt3__116reverse_iteratorINS0_IP4LinkEEEppB7v160006Ev, symObjAddr: 0x4BFC, symBinAddr: 0x10000AD88, symSize: 0x30 }
  - { offsetInCU: 0xAAFB, offset: 0x18457, size: 0x8, addend: 0x0, symName: __ZNKSt3__116reverse_iteratorINS0_IP4LinkEEE4baseB7v160006Ev, symObjAddr: 0x4C2C, symBinAddr: 0x10000ADB8, symSize: 0x24 }
  - { offsetInCU: 0xAB27, offset: 0x18483, size: 0x8, addend: 0x0, symName: __ZNSt3__119__to_address_helperINS_16reverse_iteratorINS1_IP4LinkEEEEvE6__callB7v160006ERKS5_, symObjAddr: 0x4C50, symBinAddr: 0x10000ADDC, symSize: 0x38 }
  - { offsetInCU: 0xAB49, offset: 0x184A5, size: 0x8, addend: 0x0, symName: __ZNKSt3__116reverse_iteratorINS0_IP4LinkEEEptB7v160006Ev, symObjAddr: 0x4C88, symBinAddr: 0x10000AE14, symSize: 0x24 }
  - { offsetInCU: 0xAB6F, offset: 0x184CB, size: 0x8, addend: 0x0, symName: __ZNKSt3__116reverse_iteratorINS0_IP4LinkEEEdeB7v160006Ev, symObjAddr: 0x4CAC, symBinAddr: 0x10000AE38, symSize: 0x34 }
  - { offsetInCU: 0xABA3, offset: 0x184FF, size: 0x8, addend: 0x0, symName: __ZNSt3__116reverse_iteratorIP4LinkEmmB7v160006Ev, symObjAddr: 0x4CE0, symBinAddr: 0x10000AE6C, symSize: 0x20 }
  - { offsetInCU: 0xABCA, offset: 0x18526, size: 0x8, addend: 0x0, symName: __ZNSt3__116reverse_iteratorINS0_IP4LinkEEEC2B7v160006ES3_, symObjAddr: 0x4D00, symBinAddr: 0x10000AE8C, symSize: 0x2C }
  - { offsetInCU: 0xAC02, offset: 0x1855E, size: 0x8, addend: 0x0, symName: __ZNSt3__116reverse_iteratorIP4LinkEC2B7v160006ES2_, symObjAddr: 0x4D2C, symBinAddr: 0x10000AEB8, symSize: 0x28 }
  - { offsetInCU: 0xAC3A, offset: 0x18596, size: 0x8, addend: 0x0, symName: __ZNSt3__114__split_bufferI4LinkRNS_9allocatorIS1_EEED2Ev, symObjAddr: 0x4D54, symBinAddr: 0x10000AEE0, symSize: 0x8C }
  - { offsetInCU: 0xAC65, offset: 0x185C1, size: 0x8, addend: 0x0, symName: __ZNSt3__114__split_bufferI4LinkRNS_9allocatorIS1_EEE5clearB7v160006Ev, symObjAddr: 0x4DE0, symBinAddr: 0x10000AF6C, symSize: 0x28 }
  - { offsetInCU: 0xAC8B, offset: 0x185E7, size: 0x8, addend: 0x0, symName: __ZNKSt3__114__split_bufferI4LinkRNS_9allocatorIS1_EEE8capacityB7v160006Ev, symObjAddr: 0x4E08, symBinAddr: 0x10000AF94, symSize: 0x40 }
  - { offsetInCU: 0xACB1, offset: 0x1860D, size: 0x8, addend: 0x0, symName: __ZNSt3__114__split_bufferI4LinkRNS_9allocatorIS1_EEE17__destruct_at_endB7v160006EPS1_, symObjAddr: 0x4E48, symBinAddr: 0x10000AFD4, symSize: 0x2C }
  - { offsetInCU: 0xACE5, offset: 0x18641, size: 0x8, addend: 0x0, symName: __ZNSt3__114__split_bufferI4LinkRNS_9allocatorIS1_EEE17__destruct_at_endB7v160006EPS1_NS_17integral_constantIbLb0EEE, symObjAddr: 0x4E74, symBinAddr: 0x10000B000, symSize: 0x80 }
  - { offsetInCU: 0xAD26, offset: 0x18682, size: 0x8, addend: 0x0, symName: __ZNKSt3__114__split_bufferI4LinkRNS_9allocatorIS1_EEE9__end_capB7v160006Ev, symObjAddr: 0x4EF4, symBinAddr: 0x10000B080, symSize: 0x28 }
  - { offsetInCU: 0xAD4C, offset: 0x186A8, size: 0x8, addend: 0x0, symName: __ZNKSt3__117__compressed_pairIP4LinkRNS_9allocatorIS1_EEE5firstB7v160006Ev, symObjAddr: 0x4F1C, symBinAddr: 0x10000B0A8, symSize: 0x24 }
  - { offsetInCU: 0xAD72, offset: 0x186CE, size: 0x8, addend: 0x0, symName: __ZNSt3__16vectorINS_12basic_stringIcNS_11char_traitsIcEENS_9allocatorIcEEEENS4_IS6_EEE19__copy_assign_allocB7v160006ERKS8_, symObjAddr: 0x4F40, symBinAddr: 0x10000B0CC, symSize: 0x2C }
  - { offsetInCU: 0xADA7, offset: 0x18703, size: 0x8, addend: 0x0, symName: __ZNSt3__16vectorINS_12basic_stringIcNS_11char_traitsIcEENS_9allocatorIcEEEENS4_IS6_EEE6assignIPS6_Li0EEEvT_SB_, symObjAddr: 0x4F6C, symBinAddr: 0x10000B0F8, symSize: 0x17C }
  - { offsetInCU: 0xAE46, offset: 0x187A2, size: 0x8, addend: 0x0, symName: __ZNSt3__16vectorINS_12basic_stringIcNS_11char_traitsIcEENS_9allocatorIcEEEENS4_IS6_EEE19__copy_assign_allocB7v160006ERKS8_NS_17integral_constantIbLb0EEE, symObjAddr: 0x50E8, symBinAddr: 0x10000B274, symSize: 0x14 }
  - { offsetInCU: 0xAE84, offset: 0x187E0, size: 0x8, addend: 0x0, symName: __ZNSt3__16vectorINS_12basic_stringIcNS_11char_traitsIcEENS_9allocatorIcEEEENS4_IS6_EEE17__destruct_at_endB7v160006EPS6_, symObjAddr: 0x51B8, symBinAddr: 0x10000B344, symSize: 0x60 }
  - { offsetInCU: 0xAEC8, offset: 0x18824, size: 0x8, addend: 0x0, symName: __ZNSt3__16vectorINS_12basic_stringIcNS_11char_traitsIcEENS_9allocatorIcEEEENS4_IS6_EEE13__vdeallocateEv, symObjAddr: 0x5218, symBinAddr: 0x10000B3A4, symSize: 0x8C }
  - { offsetInCU: 0xAEF0, offset: 0x1884C, size: 0x8, addend: 0x0, symName: __ZNKSt3__16vectorINS_12basic_stringIcNS_11char_traitsIcEENS_9allocatorIcEEEENS4_IS6_EEE11__recommendB7v160006Em, symObjAddr: 0x52A4, symBinAddr: 0x10000B430, symSize: 0xB4 }
  - { offsetInCU: 0xAF68, offset: 0x188C4, size: 0x8, addend: 0x0, symName: __ZNKSt3__111__copy_loopINS_17_ClassicAlgPolicyEEclB7v160006IPNS_12basic_stringIcNS_11char_traitsIcEENS_9allocatorIcEEEESA_SA_EENS_4pairIT_T1_EESC_T0_SD_, symObjAddr: 0x5570, symBinAddr: 0x10000B6FC, symSize: 0x88 }
  - { offsetInCU: 0xAFD4, offset: 0x18930, size: 0x8, addend: 0x0, symName: __ZNSt3__118__unwrap_iter_implIPNS_12basic_stringIcNS_11char_traitsIcEENS_9allocatorIcEEEELb1EE8__unwrapB7v160006ES7_, symObjAddr: 0x56BC, symBinAddr: 0x10000B848, symSize: 0x24 }
  - { offsetInCU: 0xAFFB, offset: 0x18957, size: 0x8, addend: 0x0, symName: __ZNSt3__14pairIPNS_12basic_stringIcNS_11char_traitsIcEENS_9allocatorIcEEEES7_EC1B7v160006IS7_S7_LPv0EEEOT_OT0_, symObjAddr: 0x56E0, symBinAddr: 0x10000B86C, symSize: 0x3C }
  - { offsetInCU: 0xB05B, offset: 0x189B7, size: 0x8, addend: 0x0, symName: __ZNSt3__14pairIPNS_12basic_stringIcNS_11char_traitsIcEENS_9allocatorIcEEEES7_EC2B7v160006IS7_S7_LPv0EEEOT_OT0_, symObjAddr: 0x571C, symBinAddr: 0x10000B8A8, symSize: 0x34 }
  - { offsetInCU: 0xB0BA, offset: 0x18A16, size: 0x8, addend: 0x0, symName: __ZNSt3__118__unwrap_iter_implIPNS_12basic_stringIcNS_11char_traitsIcEENS_9allocatorIcEEEELb1EE8__rewrapB7v160006ES7_S7_, symObjAddr: 0x5750, symBinAddr: 0x10000B8DC, symSize: 0x58 }
  - { offsetInCU: 0xB0EB, offset: 0x18A47, size: 0x8, addend: 0x0, symName: __ZNSt3__16vectorINS_12basic_stringIcNS_11char_traitsIcEENS_9allocatorIcEEEENS4_IS6_EEE27__invalidate_iterators_pastB7v160006EPS6_, symObjAddr: 0x57A8, symBinAddr: 0x10000B934, symSize: 0x14 }
  - { offsetInCU: 0xB121, offset: 0x18A7D, size: 0x8, addend: 0x0, symName: __ZNKSt3__16vectorINS_12basic_stringIcNS_11char_traitsIcEENS_9allocatorIcEEEENS4_IS6_EEE17__annotate_shrinkB7v160006Em, symObjAddr: 0x57BC, symBinAddr: 0x10000B948, symSize: 0xD0 }
  - { offsetInCU: 0xB156, offset: 0x18AB2, size: 0x8, addend: 0x0, symName: __ZNSt3__16vectorI4LinkNS_9allocatorIS1_EEE22__construct_one_at_endB7v160006IJRNS_12basic_stringIcNS_11char_traitsIcEENS2_IcEEEEEEEvDpOT_, symObjAddr: 0x5944, symBinAddr: 0x10000BA18, symSize: 0x90 }
  - { offsetInCU: 0xB1A5, offset: 0x18B01, size: 0x8, addend: 0x0, symName: __ZNSt3__16vectorI4LinkNS_9allocatorIS1_EEE24__emplace_back_slow_pathIJRNS_12basic_stringIcNS_11char_traitsIcEENS2_IcEEEEEEEvDpOT_, symObjAddr: 0x59D4, symBinAddr: 0x10000BAA8, symSize: 0xD8 }
  - { offsetInCU: 0xB206, offset: 0x18B62, size: 0x8, addend: 0x0, symName: __ZNSt3__116allocator_traitsINS_9allocatorI4LinkEEE9constructB7v160006IS2_JRNS_12basic_stringIcNS_11char_traitsIcEENS1_IcEEEEEvEEvRS3_PT_DpOT0_, symObjAddr: 0x5AAC, symBinAddr: 0x10000BB80, symSize: 0x34 }
  - { offsetInCU: 0xB25C, offset: 0x18BB8, size: 0x8, addend: 0x0, symName: __ZNSt3__19allocatorI4LinkE9constructB7v160006IS1_JRNS_12basic_stringIcNS_11char_traitsIcEENS0_IcEEEEEEEvPT_DpOT0_, symObjAddr: 0x5AE0, symBinAddr: 0x10000BBB4, symSize: 0x74 }
  - { offsetInCU: 0xB2B2, offset: 0x18C0E, size: 0x8, addend: 0x0, symName: __ZNSt3__112basic_stringIcNS_11char_traitsIcEENS_9allocatorIcEEEC2B7v160006EPKcm, symObjAddr: 0x5B54, symBinAddr: 0x10000BC28, symSize: 0x70 }
  - { offsetInCU: 0xB2FA, offset: 0x18C56, size: 0x8, addend: 0x0, symName: __ZNSt3__16vectorINS_12basic_stringIcNS_11char_traitsIcEENS_9allocatorIcEEEENS4_IS6_EEE22__construct_one_at_endB7v160006IJRKS6_EEEvDpOT_, symObjAddr: 0x5D04, symBinAddr: 0x10000BC98, symSize: 0x90 }
  - { offsetInCU: 0xB349, offset: 0x18CA5, size: 0x8, addend: 0x0, symName: __ZNSt3__16vectorINS_12basic_stringIcNS_11char_traitsIcEENS_9allocatorIcEEEENS4_IS6_EEE24__emplace_back_slow_pathIJRKS6_EEEvDpOT_, symObjAddr: 0x5D94, symBinAddr: 0x10000BD28, symSize: 0xD8 }
  - { offsetInCU: 0xB3AA, offset: 0x18D06, size: 0x8, addend: 0x0, symName: __ZNSt3__116allocator_traitsINS_9allocatorINS_12basic_stringIcNS_11char_traitsIcEENS1_IcEEEEEEE9constructB7v160006IS6_JRKS6_EvEEvRS7_PT_DpOT0_, symObjAddr: 0x5E6C, symBinAddr: 0x10000BE00, symSize: 0x34 }
  - { offsetInCU: 0xB400, offset: 0x18D5C, size: 0x8, addend: 0x0, symName: __ZNSt3__19allocatorINS_12basic_stringIcNS_11char_traitsIcEENS0_IcEEEEE9constructB7v160006IS5_JRKS5_EEEvPT_DpOT0_, symObjAddr: 0x5EA0, symBinAddr: 0x10000BE34, symSize: 0x30 }
  - { offsetInCU: 0xB457, offset: 0x18DB3, size: 0x8, addend: 0x0, symName: __ZNSt3__114__split_bufferINS_12basic_stringIcNS_11char_traitsIcEENS_9allocatorIcEEEERNS4_IS6_EEEC1EmmS8_, symObjAddr: 0x5ED0, symBinAddr: 0x10000BE64, symSize: 0x44 }
  - { offsetInCU: 0xB4AD, offset: 0x18E09, size: 0x8, addend: 0x0, symName: __ZNSt3__114__split_bufferINS_12basic_stringIcNS_11char_traitsIcEENS_9allocatorIcEEEERNS4_IS6_EEED1Ev, symObjAddr: 0x602C, symBinAddr: 0x10000BFC0, symSize: 0x2C }
  - { offsetInCU: 0xB4D9, offset: 0x18E35, size: 0x8, addend: 0x0, symName: __ZNSt3__114__split_bufferINS_12basic_stringIcNS_11char_traitsIcEENS_9allocatorIcEEEERNS4_IS6_EEEC2EmmS8_, symObjAddr: 0x6058, symBinAddr: 0x10000BFEC, symSize: 0xE0 }
  - { offsetInCU: 0xB54B, offset: 0x18EA7, size: 0x8, addend: 0x0, symName: __ZNSt3__117__compressed_pairIPNS_12basic_stringIcNS_11char_traitsIcEENS_9allocatorIcEEEERNS4_IS6_EEEC1B7v160006IDnS9_EEOT_OT0_, symObjAddr: 0x6138, symBinAddr: 0x10000C0CC, symSize: 0x3C }
  - { offsetInCU: 0xB5A3, offset: 0x18EFF, size: 0x8, addend: 0x0, symName: __ZNSt3__114__split_bufferINS_12basic_stringIcNS_11char_traitsIcEENS_9allocatorIcEEEERNS4_IS6_EEE7__allocB7v160006Ev, symObjAddr: 0x6174, symBinAddr: 0x10000C108, symSize: 0x28 }
  - { offsetInCU: 0xB5C9, offset: 0x18F25, size: 0x8, addend: 0x0, symName: __ZNSt3__114__split_bufferINS_12basic_stringIcNS_11char_traitsIcEENS_9allocatorIcEEEERNS4_IS6_EEE9__end_capB7v160006Ev, symObjAddr: 0x619C, symBinAddr: 0x10000C130, symSize: 0x28 }
  - { offsetInCU: 0xB5EF, offset: 0x18F4B, size: 0x8, addend: 0x0, symName: __ZNSt3__117__compressed_pairIPNS_12basic_stringIcNS_11char_traitsIcEENS_9allocatorIcEEEERNS4_IS6_EEEC2B7v160006IDnS9_EEOT_OT0_, symObjAddr: 0x61C4, symBinAddr: 0x10000C158, symSize: 0x48 }
  - { offsetInCU: 0xB648, offset: 0x18FA4, size: 0x8, addend: 0x0, symName: __ZNSt3__122__compressed_pair_elemIRNS_9allocatorINS_12basic_stringIcNS_11char_traitsIcEENS1_IcEEEEEELi1ELb0EEC2B7v160006IS8_vEEOT_, symObjAddr: 0x620C, symBinAddr: 0x10000C1A0, symSize: 0x20 }
  - { offsetInCU: 0xB689, offset: 0x18FE5, size: 0x8, addend: 0x0, symName: __ZNSt3__117__compressed_pairIPNS_12basic_stringIcNS_11char_traitsIcEENS_9allocatorIcEEEERNS4_IS6_EEE6secondB7v160006Ev, symObjAddr: 0x622C, symBinAddr: 0x10000C1C0, symSize: 0x28 }
  - { offsetInCU: 0xB6AF, offset: 0x1900B, size: 0x8, addend: 0x0, symName: __ZNSt3__122__compressed_pair_elemIRNS_9allocatorINS_12basic_stringIcNS_11char_traitsIcEENS1_IcEEEEEELi1ELb0EE5__getB7v160006Ev, symObjAddr: 0x6254, symBinAddr: 0x10000C1E8, symSize: 0x18 }
  - { offsetInCU: 0xB6D5, offset: 0x19031, size: 0x8, addend: 0x0, symName: __ZNSt3__117__compressed_pairIPNS_12basic_stringIcNS_11char_traitsIcEENS_9allocatorIcEEEERNS4_IS6_EEE5firstB7v160006Ev, symObjAddr: 0x626C, symBinAddr: 0x10000C200, symSize: 0x24 }
  - { offsetInCU: 0xB6FB, offset: 0x19057, size: 0x8, addend: 0x0, symName: __ZNSt3__129_AllocatorDestroyRangeReverseINS_9allocatorINS_12basic_stringIcNS_11char_traitsIcEENS1_IcEEEEEENS_16reverse_iteratorIPS6_EEEC1B7v160006ERS7_RSA_SD_, symObjAddr: 0x6434, symBinAddr: 0x10000C3C8, symSize: 0x44 }
  - { offsetInCU: 0xB758, offset: 0x190B4, size: 0x8, addend: 0x0, symName: __ZNSt3__116allocator_traitsINS_9allocatorINS_12basic_stringIcNS_11char_traitsIcEENS1_IcEEEEEEE9constructB7v160006IS6_JS6_EvEEvRS7_PT_DpOT0_, symObjAddr: 0x6478, symBinAddr: 0x10000C40C, symSize: 0x34 }
  - { offsetInCU: 0xB7AE, offset: 0x1910A, size: 0x8, addend: 0x0, symName: __ZNSt3__128__exception_guard_exceptionsINS_29_AllocatorDestroyRangeReverseINS_9allocatorINS_12basic_stringIcNS_11char_traitsIcEENS2_IcEEEEEENS_16reverse_iteratorIPS7_EEEEE10__completeB7v160006Ev, symObjAddr: 0x64AC, symBinAddr: 0x10000C440, symSize: 0x1C }
  - { offsetInCU: 0xB7D4, offset: 0x19130, size: 0x8, addend: 0x0, symName: __ZNSt3__128__exception_guard_exceptionsINS_29_AllocatorDestroyRangeReverseINS_9allocatorINS_12basic_stringIcNS_11char_traitsIcEENS2_IcEEEEEENS_16reverse_iteratorIPS7_EEEEED1B7v160006Ev, symObjAddr: 0x64C8, symBinAddr: 0x10000C45C, symSize: 0x2C }
  - { offsetInCU: 0xB7FE, offset: 0x1915A, size: 0x8, addend: 0x0, symName: __ZNSt3__128__exception_guard_exceptionsINS_29_AllocatorDestroyRangeReverseINS_9allocatorINS_12basic_stringIcNS_11char_traitsIcEENS2_IcEEEEEENS_16reverse_iteratorIPS7_EEEEEC1B7v160006ESC_, symObjAddr: 0x64F4, symBinAddr: 0x10000C488, symSize: 0x34 }
  - { offsetInCU: 0xB838, offset: 0x19194, size: 0x8, addend: 0x0, symName: __ZNSt3__128__exception_guard_exceptionsINS_29_AllocatorDestroyRangeReverseINS_9allocatorINS_12basic_stringIcNS_11char_traitsIcEENS2_IcEEEEEENS_16reverse_iteratorIPS7_EEEEEC2B7v160006ESC_, symObjAddr: 0x6528, symBinAddr: 0x10000C4BC, symSize: 0x30 }
  - { offsetInCU: 0xB871, offset: 0x191CD, size: 0x8, addend: 0x0, symName: __ZNSt3__129_AllocatorDestroyRangeReverseINS_9allocatorINS_12basic_stringIcNS_11char_traitsIcEENS1_IcEEEEEENS_16reverse_iteratorIPS6_EEEC2B7v160006ERS7_RSA_SD_, symObjAddr: 0x6558, symBinAddr: 0x10000C4EC, symSize: 0x38 }
  - { offsetInCU: 0xB8C7, offset: 0x19223, size: 0x8, addend: 0x0, symName: __ZNSt3__19allocatorINS_12basic_stringIcNS_11char_traitsIcEENS0_IcEEEEE9constructB7v160006IS5_JS5_EEEvPT_DpOT0_, symObjAddr: 0x6590, symBinAddr: 0x10000C524, symSize: 0x30 }
  - { offsetInCU: 0xB91D, offset: 0x19279, size: 0x8, addend: 0x0, symName: __ZNSt3__128__exception_guard_exceptionsINS_29_AllocatorDestroyRangeReverseINS_9allocatorINS_12basic_stringIcNS_11char_traitsIcEENS2_IcEEEEEENS_16reverse_iteratorIPS7_EEEEED2B7v160006Ev, symObjAddr: 0x65C0, symBinAddr: 0x10000C554, symSize: 0x50 }
  - { offsetInCU: 0xB947, offset: 0x192A3, size: 0x8, addend: 0x0, symName: __ZNKSt3__129_AllocatorDestroyRangeReverseINS_9allocatorINS_12basic_stringIcNS_11char_traitsIcEENS1_IcEEEEEENS_16reverse_iteratorIPS6_EEEclB7v160006Ev, symObjAddr: 0x6610, symBinAddr: 0x10000C5A4, symSize: 0xB4 }
  - { offsetInCU: 0xB96E, offset: 0x192CA, size: 0x8, addend: 0x0, symName: __ZNSt3__116reverse_iteratorINS0_IPNS_12basic_stringIcNS_11char_traitsIcEENS_9allocatorIcEEEEEEEC1B7v160006ES8_, symObjAddr: 0x6734, symBinAddr: 0x10000C6C8, symSize: 0x3C }
  - { offsetInCU: 0xB9A6, offset: 0x19302, size: 0x8, addend: 0x0, symName: __ZNSt3__116reverse_iteratorINS0_IPNS_12basic_stringIcNS_11char_traitsIcEENS_9allocatorIcEEEEEEEppB7v160006Ev, symObjAddr: 0x67F4, symBinAddr: 0x10000C788, symSize: 0x30 }
  - { offsetInCU: 0xB9CC, offset: 0x19328, size: 0x8, addend: 0x0, symName: __ZNKSt3__116reverse_iteratorINS0_IPNS_12basic_stringIcNS_11char_traitsIcEENS_9allocatorIcEEEEEEE4baseB7v160006Ev, symObjAddr: 0x6824, symBinAddr: 0x10000C7B8, symSize: 0x24 }
  - { offsetInCU: 0xB9F8, offset: 0x19354, size: 0x8, addend: 0x0, symName: __ZNSt3__119__to_address_helperINS_16reverse_iteratorINS1_IPNS_12basic_stringIcNS_11char_traitsIcEENS_9allocatorIcEEEEEEEEvE6__callB7v160006ERKSA_, symObjAddr: 0x6848, symBinAddr: 0x10000C7DC, symSize: 0x38 }
  - { offsetInCU: 0xBA1A, offset: 0x19376, size: 0x8, addend: 0x0, symName: __ZNKSt3__116reverse_iteratorINS0_IPNS_12basic_stringIcNS_11char_traitsIcEENS_9allocatorIcEEEEEEEptB7v160006Ev, symObjAddr: 0x6880, symBinAddr: 0x10000C814, symSize: 0x24 }
  - { offsetInCU: 0xBA40, offset: 0x1939C, size: 0x8, addend: 0x0, symName: __ZNKSt3__116reverse_iteratorINS0_IPNS_12basic_stringIcNS_11char_traitsIcEENS_9allocatorIcEEEEEEEdeB7v160006Ev, symObjAddr: 0x68A4, symBinAddr: 0x10000C838, symSize: 0x34 }
  - { offsetInCU: 0xBA74, offset: 0x193D0, size: 0x8, addend: 0x0, symName: __ZNSt3__116reverse_iteratorIPNS_12basic_stringIcNS_11char_traitsIcEENS_9allocatorIcEEEEEmmB7v160006Ev, symObjAddr: 0x68D8, symBinAddr: 0x10000C86C, symSize: 0x20 }
  - { offsetInCU: 0xBA9B, offset: 0x193F7, size: 0x8, addend: 0x0, symName: __ZNSt3__116reverse_iteratorINS0_IPNS_12basic_stringIcNS_11char_traitsIcEENS_9allocatorIcEEEEEEEC2B7v160006ES8_, symObjAddr: 0x68F8, symBinAddr: 0x10000C88C, symSize: 0x2C }
  - { offsetInCU: 0xBAD3, offset: 0x1942F, size: 0x8, addend: 0x0, symName: __ZNSt3__114__split_bufferINS_12basic_stringIcNS_11char_traitsIcEENS_9allocatorIcEEEERNS4_IS6_EEED2Ev, symObjAddr: 0x6924, symBinAddr: 0x10000C8B8, symSize: 0x8C }
  - { offsetInCU: 0xBAFE, offset: 0x1945A, size: 0x8, addend: 0x0, symName: __ZNSt3__114__split_bufferINS_12basic_stringIcNS_11char_traitsIcEENS_9allocatorIcEEEERNS4_IS6_EEE5clearB7v160006Ev, symObjAddr: 0x69B0, symBinAddr: 0x10000C944, symSize: 0x28 }
  - { offsetInCU: 0xBB24, offset: 0x19480, size: 0x8, addend: 0x0, symName: __ZNKSt3__114__split_bufferINS_12basic_stringIcNS_11char_traitsIcEENS_9allocatorIcEEEERNS4_IS6_EEE8capacityB7v160006Ev, symObjAddr: 0x69D8, symBinAddr: 0x10000C96C, symSize: 0x40 }
  - { offsetInCU: 0xBB4A, offset: 0x194A6, size: 0x8, addend: 0x0, symName: __ZNSt3__114__split_bufferINS_12basic_stringIcNS_11char_traitsIcEENS_9allocatorIcEEEERNS4_IS6_EEE17__destruct_at_endB7v160006EPS6_, symObjAddr: 0x6A18, symBinAddr: 0x10000C9AC, symSize: 0x2C }
  - { offsetInCU: 0xBB7E, offset: 0x194DA, size: 0x8, addend: 0x0, symName: __ZNSt3__114__split_bufferINS_12basic_stringIcNS_11char_traitsIcEENS_9allocatorIcEEEERNS4_IS6_EEE17__destruct_at_endB7v160006EPS6_NS_17integral_constantIbLb0EEE, symObjAddr: 0x6A44, symBinAddr: 0x10000C9D8, symSize: 0x80 }
  - { offsetInCU: 0xBBBF, offset: 0x1951B, size: 0x8, addend: 0x0, symName: __ZNKSt3__114__split_bufferINS_12basic_stringIcNS_11char_traitsIcEENS_9allocatorIcEEEERNS4_IS6_EEE9__end_capB7v160006Ev, symObjAddr: 0x6AC4, symBinAddr: 0x10000CA58, symSize: 0x28 }
  - { offsetInCU: 0xBBE5, offset: 0x19541, size: 0x8, addend: 0x0, symName: __ZNKSt3__117__compressed_pairIPNS_12basic_stringIcNS_11char_traitsIcEENS_9allocatorIcEEEERNS4_IS6_EEE5firstB7v160006Ev, symObjAddr: 0x6AEC, symBinAddr: 0x10000CA80, symSize: 0x24 }
  - { offsetInCU: 0xBC0B, offset: 0x19567, size: 0x8, addend: 0x0, symName: __ZNSt3__16vectorINS_12basic_stringIcNS_11char_traitsIcEENS_9allocatorIcEEEENS4_IS6_EEE22__construct_one_at_endB7v160006IJRPKclEEEvDpOT_, symObjAddr: 0x6B10, symBinAddr: 0x10000CAA4, symSize: 0x98 }
  - { offsetInCU: 0xBC6E, offset: 0x195CA, size: 0x8, addend: 0x0, symName: __ZNSt3__16vectorINS_12basic_stringIcNS_11char_traitsIcEENS_9allocatorIcEEEENS4_IS6_EEE24__emplace_back_slow_pathIJRPKclEEEvDpOT_, symObjAddr: 0x6BA8, symBinAddr: 0x10000CB3C, symSize: 0xE0 }
  - { offsetInCU: 0xBCE3, offset: 0x1963F, size: 0x8, addend: 0x0, symName: __ZNSt3__116allocator_traitsINS_9allocatorINS_12basic_stringIcNS_11char_traitsIcEENS1_IcEEEEEEE9constructB7v160006IS6_JRPKclEvEEvRS7_PT_DpOT0_, symObjAddr: 0x6C88, symBinAddr: 0x10000CC1C, symSize: 0x3C }
  - { offsetInCU: 0xBD4D, offset: 0x196A9, size: 0x8, addend: 0x0, symName: __ZNSt3__19allocatorINS_12basic_stringIcNS_11char_traitsIcEENS0_IcEEEEE9constructB7v160006IS5_JRPKclEEEvPT_DpOT0_, symObjAddr: 0x6CC4, symBinAddr: 0x10000CC58, symSize: 0x40 }
  - { offsetInCU: 0x52, offset: 0x19823, size: 0x8, addend: 0x0, symName: __ZL14TagsRecognized, symObjAddr: 0x8020, symBinAddr: 0x1000151A0, symSize: 0x0 }
  - { offsetInCU: 0xEC3, offset: 0x1A694, size: 0x8, addend: 0x0, symName: __Z7toloweri, symObjAddr: 0x318, symBinAddr: 0x10000DCE4, symSize: 0x24 }
  - { offsetInCU: 0x29B0, offset: 0x1C181, size: 0x8, addend: 0x0, symName: __Z17LookupPossibleTagPKcS0_, symObjAddr: 0x3C, symBinAddr: 0x10000DA08, symSize: 0x2DC }
...
